(dp0
S'METTS MARK'
p1
(dp2
S'to_messages'
p3
I807
sS'deferral_payments'
p4
S'NaN'
p5
sS'to_messages_impact'
p6
F0.04708798017348203
sS'expenses'
p7
I94299
sS'poi'
p8
I00
sS'deferred_income'
p9
g5
sS'email_address'
p10
S'mark.metts@enron.com'
p11
sS'long_term_incentive'
p12
g5
sS'restricted_stock_deferred'
p13
g5
sS'shared_receipt_with_poi'
p14
I702
sS'loan_advances'
p15
g5
sS'from_messages'
p16
I29
sS'other'
p17
I1740
sS'director_fees'
p18
g5
sS'bonus'
p19
I600000
sS'total_stock_value'
p20
I585062
sS'from_poi_to_this_person'
p21
I38
sS'from_this_person_to_poi'
p22
I1
sS'restricted_stock'
p23
I585062
sS'salary'
p24
I365788
sS'total_payments'
p25
I1061827
sS'exercised_stock_options'
p26
g5
sS'from_message_impact'
p27
F0.034482758620689655
sS'total_compensation_abs'
p28
I3293778
ssS'BAXTER JOHN C'
p29
(dp30
g3
g5
sg4
I1295738
sg6
I0
sg7
I11200
sg8
I00
sg9
I-1386055
sg10
g5
sg12
I1586055
sg13
g5
sg14
g5
sg15
g5
sg16
g5
sg17
I2660303
sg18
g5
sS'total_compensation_abs_abs'
p31
I35287312
sg19
I1200000
sg20
I10623258
sg21
g5
sg22
g5
sg23
I3942714
sg24
I267102
sg25
I5634343
sg26
I6680544
sg27
I0
ssS'ELLIOTT STEVEN'
p32
(dp33
g3
g5
sg4
g5
sg6
I0
sg7
I78552
sg8
I00
sg9
I-400729
sg10
S'steven.elliott@enron.com'
p34
sg12
g5
sg13
g5
sg14
g5
sg15
g5
sg16
g5
sg17
I12961
sg18
g5
sg19
I350000
sg20
I6678735
sg21
g5
sg22
g5
sg23
I1788391
sg24
I170941
sg25
I211725
sS'total_compensation_abs_abs_abs'
p35
I14582378
sg26
I4890344
sg27
I0
ssS'CORDES WILLIAM R'
p36
(dp37
g3
I764
sg4
g5
sg6
F0.013089005235602094
sg7
g5
sg8
I00
sg9
g5
sg10
S'bill.cordes@enron.com'
p38
sg12
g5
sS'total_compensation_abs_abs_abs_abs'
p39
I2076370
sg13
g5
sg14
I58
sg15
g5
sg16
I12
sg17
g5
sg18
g5
sg19
g5
sg20
I1038185
sg21
I10
sg22
I0
sg23
I386335
sg24
g5
sg25
g5
sg26
I651850
sg27
F0.0
ssS'HANNON KEVIN P'
p40
(dp41
g3
I1045
sg4
g5
sg6
F0.03062200956937799
sg7
I34039
sg8
I01
sg9
I-3117011
sg10
S'kevin.hannon@enron.com'
p42
sg12
I1617011
sg13
g5
sg14
I1035
sg15
g5
sg16
I32
sg17
I11350
sg18
g5
sS'total_compensation_abs_abs_abs_abs_abs'
p43
I19593516
sg19
I1500000
sg20
I6391065
sg21
I32
sg22
I21
sg23
I853064
sg24
I243293
sg25
I288682
sg26
I5538001
sg27
F0.65625
ssS'MORDAUNT KRISTINA M'
p44
(dp45
g3
g5
sg4
g5
sg6
I0
sg7
I35018
sg8
I00
sg9
g5
sg10
S'kristina.mordaunt@enron.com'
p46
sg12
g5
sg13
g5
sg14
g5
sg15
g5
sg16
g5
sg17
I1411
sg18
g5
sg19
I325000
sg20
I208510
sg21
g5
sg22
g5
sg23
I208510
sg24
I267093
sg25
I628522
sS'total_compensation_abs_abs_abs_abs_abs_abs'
p47
I1674064
sg26
g5
sg27
I0
ssS'MEYER ROCKFORD G'
p48
(dp49
g3
I232
sg4
I1848227
sg6
F0.0
sg7
g5
sg8
I00
sg9
g5
sg10
S'rockford.meyer@enron.com'
p50
sg12
g5
sg13
g5
sg14
I22
sg15
g5
sg16
I28
sg17
g5
sg18
g5
sS'total_compensation_abs_abs_abs_abs_abs_abs_abs'
p51
I5608200
sg19
g5
sg20
I955873
sg21
I0
sg22
I0
sg23
I462384
sg24
g5
sg25
I1848227
sg26
I493489
sg27
F0.0
ssS'MCMAHON JEFFREY'
p52
(dp53
g3
I2355
sg4
g5
sg6
F0.024628450106157114
sg7
I137108
sg8
I00
sg9
g5
sg10
S'jeffrey.mcmahon@enron.com'
p54
sg12
I694862
sg13
g5
sg14
I2228
sg15
g5
sg16
I48
sg17
I297353
sg18
g5
sg19
I2600000
sg20
I1662855
sg21
I58
sg22
I26
sg23
I558801
sg24
I370448
sg25
I4099771
sS'total_compensation_abs_abs_abs_abs_abs_abs_abs_abs'
p55
I11525252
sg26
I1104054
sg27
F0.5416666666666666
ssS'HORTON STANLEY C'
p56
(dp57
g3
I2350
sg4
I3131860
sg6
F0.01872340425531915
sg7
g5
sg8
I00
sg9
g5
sg10
S'stanley.horton@enron.com'
p58
sg12
g5
sg13
g5
sg14
I1074
sg15
g5
sg16
I1073
sg17
g5
sg18
g5
sg19
g5
sS'total_compensation_abs_abs_abs_abs_abs_abs_abs_abs_abs'
p59
I20777016
sg20
I7256648
sg21
I44
sg22
I15
sg23
I2046079
sg24
g5
sg25
I3131860
sg26
I5210569
sg27
F0.013979496738117428
ssS'PIPER GREGORY F'
p60
(dp61
g3
I1238
sg4
I1130036
sg6
F0.049273021001615507
sg7
I43057
sS'total_compensation_abs_abs_abs_abs_abs_abs_abs_abs_abs_abs'
p62
I6121612
sg8
I00
sg9
I-33333
sg10
S'greg.piper@enron.com'
p63
sg12
g5
sg13
I-409554
sg14
I742
sg15
g5
sg16
I222
sg17
I778
sg18
g5
sg19
I400000
sg20
I880290
sg21
I61
sg22
I48
sg23
I409554
sg24
I197091
sg25
I1737629
sg26
I880290
sg27
F0.21621621621621623
ssS'HUMPHREY GENE E'
p64
(dp65
g3
I128
sg4
I2964506
sg6
F0.078125
sg7
I4994
sg8
I00
sg9
g5
sg10
S'gene.humphrey@enron.com'
p66
sg12
g5
sg13
g5
sg14
I119
sg15
g5
sg16
I17
sg17
g5
sg18
g5
sg19
g5
sg20
I2282768
sg21
I10
sg22
I17
sg23
g5
sg24
I130724
sg25
I3100224
sg26
I2282768
sS'total_compensation_abs_abs_abs_abs_abs_abs_abs_abs_abs_abs_abs'
p67
I10765984
sg27
F1.0
ssS'UMANOFF ADAM S'
p68
(dp69
g3
I111
sg4
g5
sg6
F0.10810810810810811
sg7
I53122
sg8
I00
sg9
g5
sg10
S'adam.umanoff@enron.com'
p70
sg12
g5
sg13
g5
sg14
I41
sg15
g5
sg16
I18
sg17
g5
sg18
g5
sg19
I788750
sg20
g5
sg21
I12
sg22
I0
sg23
g5
sg24
I288589
sS'total_compensation_abs_abs_abs_abs_abs_abs_abs_abs_abs_abs_abs_abs'
p71
I2260922
sg25
I1130461
sg26
g5
sg27
F0.0
ssS'BLACHMAN JEREMY M'
p72
(dp73
g3
I2475
sg4
g5
sg6
F0.010101010101010102
sg7
I84208
sg8
I00
sg9
g5
sg10
S'jeremy.blachman@enron.com'
p74
sg12
I831809
sg13
g5
sg14
I2326
sg15
g5
sg16
I14
sg17
I272
sg18
g5
sg19
I850000
sg20
I954354
sg21
I25
sg22
I2
sg23
I189041
sg24
I248546
sg25
I2014835
sg26
I765313
sS'total_compensation_abs_abs_abs_abs_abs_abs_abs_abs_abs_abs_abs_abs_abs'
p75
I5938378
sg27
F0.14285714285714285
ssS'SUNDE MARTIN'
p76
(dp77
g3
I2647
sg4
g5
sg6
F0.013978088401964487
sg7
g5
sg8
I00
sg9
g5
sg10
S'marty.sunde@enron.com'
p78
sg12
I476451
sg13
g5
sg14
I2565
sg15
g5
sg16
I38
sg17
I111122
sg18
g5
sg19
I700000
sg20
I698920
sg21
I37
sg22
I13
sg23
I698920
sg24
I257486
sg25
I1545059
sg26
g5
sS'total_compensation_abs_abs_abs_abs_abs_abs_abs_abs_abs_abs_abs_abs_abs_abs'
p79
I4487958
sg27
F0.34210526315789475
ssS'GIBBS DANA R'
p80
(dp81
g3
I169
sg4
I504610
sg6
F0.0
sg7
g5
sg8
I00
sg9
g5
sg10
S'dana.gibbs@enron.com'
p82
sg12
I461912
sg13
g5
sg14
I23
sg15
g5
sg16
I12
sg17
g5
sg18
g5
sg19
g5
sg20
I2218275
sg21
I0
sg22
I0
sg23
g5
sg24
g5
sg25
I966522
sS'total_compensation_abs_abs_abs_abs_abs_abs_abs_abs_abs_abs_abs_abs_abs_abs_abs'
p83
I6369594
sg26
I2218275
sg27
F0.0
ssS'LOWRY CHARLES P'
p84
(dp85
g3
g5
sg4
g5
sg6
I0
sg7
g5
sg8
I00
sg9
g5
sg10
g5
sg12
g5
sg13
I-153686
sg14
g5
sg15
g5
sg16
g5
sg17
g5
sg18
g5
sg19
g5
sg20
I372205
sg21
g5
sg22
g5
sg23
I153686
sg24
g5
sg25
g5
sg26
I372205
sS'total_compensation_abs_abs_abs_abs_abs_abs_abs_abs_abs_abs_abs_abs_abs_abs_abs_abs'
p86
I1051782
sg27
I0
ssS'COLWELL WESLEY'
p87
(dp88
g3
I1758
sg4
I27610
sg6
F0.13651877133105803
sg7
I16514
sg8
I01
sg9
I-144062
sg10
S'wes.colwell@enron.com'
p89
sg12
g5
sS'total_compensation_abs_abs_abs_abs_abs_abs_abs_abs_abs_abs_abs_abs_abs_abs_abs_abs_abs'
p90
I4665296
sg13
g5
sg14
I1132
sg15
g5
sg16
I40
sg17
I101740
sg18
g5
sg19
I1200000
sg20
I698242
sg21
I240
sg22
I11
sg23
I698242
sg24
I288542
sg25
I1490344
sg26
g5
sg27
F0.275
ssS'MULLER MARK S'
p91
(dp92
g3
I136
sg4
I842924
sg6
F0.08823529411764706
sg7
g5
sg8
I00
sg9
I-719000
sg10
S's..muller@enron.com'
p93
sg12
I1725545
sg13
g5
sg14
I114
sg15
g5
sg16
I16
sg17
I947
sg18
g5
sg19
I1100000
sg20
I1416848
sg21
I12
sg22
I0
sg23
I360528
sg24
I251654
sS'total_compensation_abs_abs_abs_abs_abs_abs_abs_abs_abs_abs_abs_abs_abs_abs_abs_abs_abs_abs'
p94
I10675836
sg25
I3202070
sg26
I1056320
sg27
F0.0
ssS'JACKSON CHARLENE R'
p95
(dp96
g3
I258
sg4
g5
sg6
F0.09689922480620156
sg7
I10181
sg8
I00
sg9
g5
sg10
S'charlene.jackson@enron.com'
p97
sg12
g5
sg13
g5
sg14
I117
sg15
g5
sg16
I56
sg17
I2435
sg18
g5
sg19
I250000
sg20
I725735
sg21
I25
sg22
I19
sg23
I540672
sg24
I288558
sg25
I551174
sg26
I185063
sS'total_compensation_abs_abs_abs_abs_abs_abs_abs_abs_abs_abs_abs_abs_abs_abs_abs_abs_abs_abs_abs'
p98
I2553818
sg27
F0.3392857142857143
ssS'WESTFAHL RICHARD K'
p99
(dp100
g3
g5
sg4
g5
sg6
I0
sg7
I51870
sS'total_compensation_abs_abs_abs_abs_abs_abs_abs_abs_abs_abs_abs_abs_abs_abs_abs_abs_abs_abs_abs_abs'
p101
I2315730
sg8
I00
sg9
I-10800
sg10
S'dick.westfahl@enron.com'
p102
sg12
I256191
sg13
g5
sg14
g5
sg15
g5
sg16
g5
sg17
I401130
sg18
g5
sg19
g5
sg20
I384930
sg21
g5
sg22
g5
sg23
I384930
sg24
I63744
sg25
I762135
sg26
g5
sg27
I0
ssS'WALTERS GARETH W'
p103
(dp104
g3
g5
sg4
I53625
sg6
I0
sg7
I33785
sg8
I00
sg9
g5
sg10
g5
sg12
g5
sg13
g5
sg14
g5
sg15
g5
sg16
g5
sg17
g5
sg18
g5
sg19
g5
sg20
I1030329
sg21
g5
sg22
g5
sg23
g5
sg24
g5
sS'total_compensation_abs_abs_abs_abs_abs_abs_abs_abs_abs_abs_abs_abs_abs_abs_abs_abs_abs_abs_abs_abs_abs'
p105
I2235478
sg25
I87410
sg26
I1030329
sg27
I0
ssS'WALLS JR ROBERT H'
p106
(dp107
g3
I671
sg4
g5
sg6
F0.02533532041728763
sg7
I50936
sg8
I00
sg9
g5
sg10
S'rob.walls@enron.com'
p108
sg12
I540751
sg13
g5
sg14
I215
sg15
g5
sg16
I146
sg17
I2
sg18
g5
sg19
I850000
sS'total_compensation_abs_abs_abs_abs_abs_abs_abs_abs_abs_abs_abs_abs_abs_abs_abs_abs_abs_abs_abs_abs_abs_abs'
p109
I15395554
sg20
I5898997
sg21
I17
sg22
I0
sg23
I1552453
sg24
I357091
sg25
I1798780
sg26
I4346544
sg27
F0.0
ssS'KITCHEN LOUISE'
p110
(dp111
g3
I8305
sg4
g5
sg6
F0.030222757375075255
sg7
I5774
sg8
I00
sg9
g5
sg10
S'louise.kitchen@enron.com'
p112
sg12
g5
sg13
g5
sg14
I3669
sg15
g5
sg16
I1728
sg17
I93925
sg18
g5
sS'total_compensation_abs_abs_abs_abs_abs_abs_abs_abs_abs_abs_abs_abs_abs_abs_abs_abs_abs_abs_abs_abs_abs_abs_abs'
p113
I8036568
sg19
I3100000
sg20
I547143
sg21
I251
sg22
I194
sg23
I466101
sg24
I271442
sg25
I3471141
sg26
I81042
sg27
F0.11226851851851852
ssS'CHAN RONNIE'
p114
(dp115
g3
g5
sg4
g5
sg6
I0
sg7
g5
sg8
I00
sg9
I-98784
sg10
g5
sg12
g5
sg13
I-32460
sg14
g5
sg15
g5
sg16
g5
sg17
g5
sg18
I98784
sg19
g5
sS'total_compensation_abs_abs_abs_abs_abs_abs_abs_abs_abs_abs_abs_abs_abs_abs_abs_abs_abs_abs_abs_abs_abs_abs_abs_abs'
p116
I262488
sg20
g5
sg21
g5
sg22
g5
sg23
I32460
sg24
g5
sg25
g5
sg26
g5
sg27
I0
ssS'BELFER ROBERT'
p117
(dp118
g3
g5
sg4
I-102500
sg6
I0
sg7
g5
sg8
I00
sg9
g5
sg10
g5
sg12
g5
sg13
I44093
sg14
g5
sg15
g5
sg16
g5
sg17
g5
sg18
I3285
sg19
g5
sg20
I-44093
sg21
g5
sg22
g5
sg23
g5
sg24
g5
sg25
I102500
sS'total_compensation_abs_abs_abs_abs_abs_abs_abs_abs_abs_abs_abs_abs_abs_abs_abs_abs_abs_abs_abs_abs_abs_abs_abs_abs_abs'
p119
I299756
sg26
I3285
sg27
I0
ssS'SHANKMAN JEFFREY A'
p120
(dp121
g3
I3221
sg4
g5
sg6
F0.029183483390251473
sg7
I178979
sg8
I00
sg9
g5
sg10
S'jeffrey.shankman@enron.com'
p122
sg12
I554422
sg13
g5
sg14
I1730
sg15
g5
sg16
I2681
sg17
I1191
sg18
g5
sg19
I2000000
sg20
I2072035
sg21
I94
sg22
I83
sg23
I630137
sg24
I304110
sg25
I3038702
sg26
I1441898
sS'total_compensation_abs_abs_abs_abs_abs_abs_abs_abs_abs_abs_abs_abs_abs_abs_abs_abs_abs_abs_abs_abs_abs_abs_abs_abs_abs_abs'
p123
I10221474
sg27
F0.030958597538232
ssS'WODRASKA JOHN'
p124
(dp125
g3
g5
sg4
g5
sg6
I0
sg7
g5
sg8
I00
sS'total_compensation_abs_abs_abs_abs_abs_abs_abs_abs_abs_abs_abs_abs_abs_abs_abs_abs_abs_abs_abs_abs_abs_abs_abs_abs_abs_abs_abs'
p126
I379166
sg9
g5
sg10
S'john.wodraska@enron.com'
p127
sg12
g5
sg13
g5
sg14
g5
sg15
g5
sg16
g5
sg17
I189583
sg18
g5
sg19
g5
sg20
g5
sg21
g5
sg22
g5
sg23
g5
sg24
g5
sg25
I189583
sg26
g5
sg27
I0
ssS'BERGSIEKER RICHARD P'
p128
(dp129
g3
I383
sg4
g5
sg6
F0.010443864229765013
sg7
I59175
sg8
I00
sg9
I-485813
sg10
S'rick.bergsieker@enron.com'
p130
sg12
I180250
sg13
g5
sg14
I233
sg15
g5
sg16
I59
sg17
I427316
sS'total_compensation_abs_abs_abs_abs_abs_abs_abs_abs_abs_abs_abs_abs_abs_abs_abs_abs_abs_abs_abs_abs_abs_abs_abs_abs_abs_abs_abs_abs'
p131
I3527824
sg18
g5
sg19
I250000
sg20
I659249
sg21
I4
sg22
I0
sg23
I659249
sg24
I187922
sg25
I618850
sg26
g5
sg27
F0.0
ssS'URQUHART JOHN A'
p132
(dp133
g3
g5
sg4
g5
sg6
I0
sg7
I228656
sg8
I00
sg9
I-36666
sg10
g5
sg12
g5
sg13
g5
sg14
g5
sg15
g5
sg16
g5
sg17
g5
sg18
I36666
sg19
g5
sg20
g5
sg21
g5
sS'total_compensation_abs_abs_abs_abs_abs_abs_abs_abs_abs_abs_abs_abs_abs_abs_abs_abs_abs_abs_abs_abs_abs_abs_abs_abs_abs_abs_abs_abs_abs'
p134
I530644
sg22
g5
sg23
g5
sg24
g5
sg25
I228656
sg26
g5
sg27
I0
ssS'BIBI PHILIPPE A'
p135
(dp136
g3
I1607
sg4
g5
sg6
F0.01431238332296204
sg7
I38559
sg8
I00
sg9
g5
sg10
S'philippe.bibi@enron.com'
p137
sg12
I369721
sg13
g5
sg14
I1336
sg15
g5
sg16
I40
sg17
I425688
sg18
g5
sg19
I1000000
sg20
I1843816
sg21
I23
sg22
I8
sg23
I378082
sg24
I213625
sg25
I2047593
sS'total_compensation_abs_abs_abs_abs_abs_abs_abs_abs_abs_abs_abs_abs_abs_abs_abs_abs_abs_abs_abs_abs_abs_abs_abs_abs_abs_abs_abs_abs_abs_abs'
p138
I7782818
sg26
I1465734
sg27
F0.2
ssS'RIEKER PAULA H'
p139
(dp140
g3
I1328
sg4
I214678
sg6
F0.02635542168674699
sg7
I33271
sg8
I01
sg9
I-100000
sg10
S'paula.rieker@enron.com'
p141
sg12
g5
sg13
g5
sg14
I1258
sg15
g5
sg16
I82
sg17
I1950
sg18
g5
sg19
I700000
sg20
I1918887
sg21
I35
sg22
I48
sg23
I283649
sg24
I249201
sS'total_compensation_abs_abs_abs_abs_abs_abs_abs_abs_abs_abs_abs_abs_abs_abs_abs_abs_abs_abs_abs_abs_abs_abs_abs_abs_abs_abs_abs_abs_abs_abs_abs'
p142
I6235974
sg25
I1099100
sg26
I1635238
sg27
F0.5853658536585366
ssS'WHALEY DAVID A'
p143
(dp144
g3
g5
sg4
g5
sg6
I0
sg7
g5
sg8
I00
sS'total_compensation_abs_abs_abs_abs_abs_abs_abs_abs_abs_abs_abs_abs_abs_abs_abs_abs_abs_abs_abs_abs_abs_abs_abs_abs_abs_abs_abs_abs_abs_abs_abs_abs'
p145
I197436
sg9
g5
sg10
g5
sg12
g5
sg13
g5
sg14
g5
sg15
g5
sg16
g5
sg17
g5
sg18
g5
sg19
g5
sg20
I98718
sg21
g5
sg22
g5
sg23
g5
sg24
g5
sg25
g5
sg26
I98718
sg27
I0
ssS'BECK SALLY W'
p146
(dp147
g3
I7315
sg4
g5
sg6
F0.01968557758031442
sg7
I37172
sg8
I00
sg9
g5
sg10
S'sally.beck@enron.com'
p148
sg12
g5
sg13
g5
sg14
I2639
sg15
g5
sg16
I4343
sg17
I566
sS'total_compensation_abs_abs_abs_abs_abs_abs_abs_abs_abs_abs_abs_abs_abs_abs_abs_abs_abs_abs_abs_abs_abs_abs_abs_abs_abs_abs_abs_abs_abs_abs_abs_abs_abs'
p149
I2190190
sg18
g5
sg19
I700000
sg20
I126027
sg21
I144
sg22
I386
sg23
I126027
sg24
I231330
sg25
I969068
sg26
g5
sg27
F0.08887865530739121
ssS'HAUG DAVID L'
p150
(dp151
g3
I573
sg4
g5
sS'total_compensation_abs_abs_abs_abs_abs_abs_abs_abs_abs_abs_abs_abs_abs_abs_abs_abs_abs_abs_abs_abs_abs_abs_abs_abs_abs_abs_abs_abs_abs_abs_abs_abs_abs_abs'
p152
I4435548
sg6
F0.006980802792321117
sg7
I475
sg8
I00
sg9
g5
sg10
S'david.haug@enron.com'
p153
sg12
g5
sg13
g5
sg14
I471
sg15
g5
sg16
I19
sg17
g5
sg18
g5
sg19
g5
sg20
I2217299
sg21
I4
sg22
I7
sg23
I2217299
sg24
g5
sg25
I475
sg26
g5
sg27
F0.3684210526315789
ssS'ECHOLS JOHN B'
p154
(dp155
g3
g5
sg4
g5
sg6
I0
sg7
I21530
sg8
I00
sg9
g5
sg10
S'john.echols@enron.com'
p156
sg12
I2234774
sS'total_compensation_abs_abs_abs_abs_abs_abs_abs_abs_abs_abs_abs_abs_abs_abs_abs_abs_abs_abs_abs_abs_abs_abs_abs_abs_abs_abs_abs_abs_abs_abs_abs_abs_abs_abs_abs'
p157
I7402530
sg13
g5
sg14
g5
sg15
g5
sg16
g5
sg17
I53775
sg18
g5
sg19
I200000
sg20
I1008941
sg21
g5
sg22
g5
sg23
I407503
sg24
I182245
sg25
I2692324
sg26
I601438
sg27
I0
ssS'MENDELSOHN JOHN'
p158
(dp159
g3
g5
sg4
g5
sg6
I0
sg7
I148
sg8
I00
sg9
I-103750
sg10
g5
sg12
g5
sS'total_compensation_abs_abs_abs_abs_abs_abs_abs_abs_abs_abs_abs_abs_abs_abs_abs_abs_abs_abs_abs_abs_abs_abs_abs_abs_abs_abs_abs_abs_abs_abs_abs_abs_abs_abs_abs_abs'
p160
I207796
sg13
g5
sg14
g5
sg15
g5
sg16
g5
sg17
g5
sg18
I103750
sg19
g5
sg20
g5
sg21
g5
sg22
g5
sg23
g5
sg24
g5
sg25
I148
sg26
g5
sg27
I0
ssS'HICKERSON GARY J'
p161
(dp162
g3
I1320
sg4
g5
sg6
F0.030303030303030304
sg7
I98849
sg8
I00
sS'total_compensation_abs_abs_abs_abs_abs_abs_abs_abs_abs_abs_abs_abs_abs_abs_abs_abs_abs_abs_abs_abs_abs_abs_abs_abs_abs_abs_abs_abs_abs_abs_abs_abs_abs_abs_abs_abs_abs'
p163
I5045784
sg9
g5
sg10
S'gary.hickerson@enron.com'
p164
sg12
I69223
sg13
g5
sg14
I900
sg15
g5
sg16
I27
sg17
I1936
sg18
g5
sg19
I1700000
sg20
I441096
sg21
I40
sg22
I1
sg23
I441096
sg24
I211788
sg25
I2081796
sg26
g5
sg27
F0.037037037037037035
ssS'CLINE KENNETH W'
p165
(dp166
g3
g5
sg4
g5
sg6
I0
sg7
g5
sg8
I00
sg9
g5
sg10
g5
sg12
g5
sg13
I-472568
sS'total_compensation_abs_abs_abs_abs_abs_abs_abs_abs_abs_abs_abs_abs_abs_abs_abs_abs_abs_abs_abs_abs_abs_abs_abs_abs_abs_abs_abs_abs_abs_abs_abs_abs_abs_abs_abs_abs_abs_abs'
p167
I1324172
sg14
g5
sg15
g5
sg16
g5
sg17
g5
sg18
g5
sg19
g5
sg20
I189518
sg21
g5
sg22
g5
sg23
I662086
sg24
g5
sg25
g5
sg26
g5
sg27
I0
ssS'LEWIS RICHARD'
p168
(dp169
S'total_compensation_abs_abs_abs_abs_abs_abs_abs_abs_abs_abs_abs_abs_abs_abs_abs_abs_abs_abs_abs_abs_abs_abs_abs_abs_abs_abs_abs_abs_abs_abs_abs_abs_abs_abs_abs_abs_abs_abs_abs'
p170
I1700954
sg3
I952
sg4
g5
sg6
F0.01050420168067227
sg7
g5
sg8
I00
sg9
g5
sg10
S'richard.lewis@enron.com'
p171
sg12
g5
sg13
g5
sg14
I739
sg15
g5
sg16
I26
sg17
g5
sg18
g5
sg19
g5
sg20
I850477
sg21
I10
sg22
I0
sg23
g5
sg24
g5
sg25
g5
sg26
I850477
sg27
F0.0
ssS'HAYES ROBERT E'
p172
(dp173
g3
I504
sg4
I7961
sg6
F0.031746031746031744
sg7
g5
sg8
I00
sg9
g5
sg10
S'robert.hayes@enron.com'
p174
sg12
g5
sS'total_compensation_abs_abs_abs_abs_abs_abs_abs_abs_abs_abs_abs_abs_abs_abs_abs_abs_abs_abs_abs_abs_abs_abs_abs_abs_abs_abs_abs_abs_abs_abs_abs_abs_abs_abs_abs_abs_abs_abs_abs_abs'
p175
I318758
sg13
g5
sg14
I50
sg15
g5
sg16
I12
sg17
g5
sg18
g5
sg19
g5
sg20
I151418
sg21
I16
sg22
I0
sg23
I151418
sg24
g5
sg25
I7961
sg26
g5
sg27
F0.0
ssS'MCCARTY DANNY J'
p176
(dp177
g3
I1433
sg4
g5
sg6
F0.017445917655268667
sS'total_compensation_abs_abs_abs_abs_abs_abs_abs_abs_abs_abs_abs_abs_abs_abs_abs_abs_abs_abs_abs_abs_abs_abs_abs_abs_abs_abs_abs_abs_abs_abs_abs_abs_abs_abs_abs_abs_abs_abs_abs_abs_abs'
p178
I1517862
sg7
g5
sg8
I00
sg9
g5
sg10
S'danny.mccarty@enron.com'
p179
sg12
g5
sg13
g5
sg14
I508
sg15
g5
sg16
I215
sg17
g5
sg18
g5
sg19
g5
sg20
I758931
sg21
I25
sg22
I2
sg23
I94556
sg24
g5
sg25
g5
sg26
I664375
sg27
F0.009302325581395349
ssS'KOPPER MICHAEL J'
p180
(dp181
g3
g5
sg4
g5
sg6
I0
sg7
I118134
sg8
I01
sg9
g5
sg10
S'michael.kopper@enron.com'
p182
sg12
I602671
sg13
g5
sg14
g5
sg15
g5
sg16
g5
sg17
I907502
sg18
g5
sg19
I800000
sg20
I985032
sg21
g5
sg22
g5
sg23
I985032
sg24
I224305
sg25
I2652612
sg26
g5
sg27
I0
sS'total_compensation_abs_abs_abs_abs_abs_abs_abs_abs_abs_abs_abs_abs_abs_abs_abs_abs_abs_abs_abs_abs_abs_abs_abs_abs_abs_abs_abs_abs_abs_abs_abs_abs_abs_abs_abs_abs_abs_abs_abs_abs_abs_abs'
p183
I7275288
ssS'LEFF DANIEL P'
p184
(dp185
g3
I2822
sg4
g5
sg6
F0.02374202693125443
sg7
g5
sg8
I00
sg9
g5
sg10
S'dan.leff@enron.com'
p186
sg12
I1387399
sg13
g5
sg14
I2672
sg15
g5
sg16
I63
sg17
I3083
sS'total_compensation_abs_abs_abs_abs_abs_abs_abs_abs_abs_abs_abs_abs_abs_abs_abs_abs_abs_abs_abs_abs_abs_abs_abs_abs_abs_abs_abs_abs_abs_abs_abs_abs_abs_abs_abs_abs_abs_abs_abs_abs_abs_abs_abs'
p187
I6049512
sg18
g5
sg19
I1000000
sg20
I360528
sg21
I67
sg22
I14
sg23
I360528
sg24
I273746
sg25
I2664228
sg26
g5
sg27
F0.2222222222222222
ssS'LAVORATO JOHN J'
p188
(dp189
g3
I7259
sg4
g5
sg6
F0.07273729163796666
sg7
I49537
sg8
I00
sg9
g5
sg10
S'john.lavorato@enron.com'
p190
sg12
I2035380
sS'total_compensation_abs_abs_abs_abs_abs_abs_abs_abs_abs_abs_abs_abs_abs_abs_abs_abs_abs_abs_abs_abs_abs_abs_abs_abs_abs_abs_abs_abs_abs_abs_abs_abs_abs_abs_abs_abs_abs_abs_abs_abs_abs_abs_abs_abs'
p191
I31185802
sg13
g5
sg14
I3962
sg15
g5
sg16
I2585
sg17
I1552
sg18
g5
sg19
I8000000
sg20
I5167144
sg21
I528
sg22
I411
sg23
I1008149
sg24
I339288
sg25
I10425757
sg26
I4158995
sg27
F0.15899419729206962
ssS'BERBERIAN DAVID'
p192
(dp193
g3
g5
sg4
g5
sg6
I0
sg7
I11892
sg8
I00
sg9
g5
sg10
S'david.berberian@enron.com'
p194
sg12
g5
sg13
g5
sg14
g5
sg15
g5
sg16
g5
sg17
g5
sS'total_compensation_abs_abs_abs_abs_abs_abs_abs_abs_abs_abs_abs_abs_abs_abs_abs_abs_abs_abs_abs_abs_abs_abs_abs_abs_abs_abs_abs_abs_abs_abs_abs_abs_abs_abs_abs_abs_abs_abs_abs_abs_abs_abs_abs_abs_abs'
p195
I5444180
sg18
g5
sg19
g5
sg20
I2493616
sg21
g5
sg22
g5
sg23
I869220
sg24
I216582
sg25
I228474
sg26
I1624396
sg27
I0
ssS'DETMERING TIMOTHY J'
p196
(dp197
g3
g5
sg4
I875307
sg6
I0
sg7
I52255
sg8
I00
sg9
I-775241
sg10
S'timothy.detmering@enron.com'
p198
sg12
I415657
sg13
I-315068
sg14
g5
sg15
g5
sg16
g5
sg17
I1105
sg18
g5
sg19
I425000
sg20
I2027865
sg21
g5
sg22
g5
sg23
I315068
sS'total_compensation_abs_abs_abs_abs_abs_abs_abs_abs_abs_abs_abs_abs_abs_abs_abs_abs_abs_abs_abs_abs_abs_abs_abs_abs_abs_abs_abs_abs_abs_abs_abs_abs_abs_abs_abs_abs_abs_abs_abs_abs_abs_abs_abs_abs_abs_abs'
p199
I8645514
sg24
I210500
sg25
I1204583
sg26
I2027865
sg27
I0
ssS'WAKEHAM JOHN'
p200
(dp201
g3
g5
sg4
g5
sg6
I0
sg7
I103773
sg8
I00
sg9
g5
sg10
g5
sg12
g5
sg13
g5
sg14
g5
sS'total_compensation_abs_abs_abs_abs_abs_abs_abs_abs_abs_abs_abs_abs_abs_abs_abs_abs_abs_abs_abs_abs_abs_abs_abs_abs_abs_abs_abs_abs_abs_abs_abs_abs_abs_abs_abs_abs_abs_abs_abs_abs_abs_abs_abs_abs_abs_abs_abs'
p202
I426142
sg15
g5
sg16
g5
sg17
g5
sg18
I109298
sg19
g5
sg20
g5
sg21
g5
sg22
g5
sg23
g5
sg24
g5
sg25
I213071
sg26
g5
sg27
I0
ssS'POWERS WILLIAM'
p203
(dp204
g3
I653
sg4
g5
sg6
F0.0
sg7
g5
sg8
I00
sg9
I-17500
sg10
S'ken.powers@enron.com'
p205
sg12
g5
sg13
g5
sg14
I12
sg15
g5
sg16
I26
sg17
g5
sS'total_compensation_abs_abs_abs_abs_abs_abs_abs_abs_abs_abs_abs_abs_abs_abs_abs_abs_abs_abs_abs_abs_abs_abs_abs_abs_abs_abs_abs_abs_abs_abs_abs_abs_abs_abs_abs_abs_abs_abs_abs_abs_abs_abs_abs_abs_abs_abs_abs_abs'
p206
I35000
sg18
I17500
sg19
g5
sg20
g5
sg21
I0
sg22
I0
sg23
g5
sg24
g5
sg25
g5
sg26
g5
sg27
F0.0
ssS'GOLD JOSEPH'
p207
(dp208
g3
g5
sg4
g5
sg6
I0
sg7
g5
sg8
I00
sg9
g5
sg10
S'joe.gold@enron.com'
p209
sg12
I304805
sS'total_compensation_abs_abs_abs_abs_abs_abs_abs_abs_abs_abs_abs_abs_abs_abs_abs_abs_abs_abs_abs_abs_abs_abs_abs_abs_abs_abs_abs_abs_abs_abs_abs_abs_abs_abs_abs_abs_abs_abs_abs_abs_abs_abs_abs_abs_abs_abs_abs_abs_abs'
p210
I6049168
sg13
g5
sg14
g5
sg15
g5
sg16
g5
sg17
I819288
sg18
g5
sg19
I750000
sg20
I877611
sg21
g5
sg22
g5
sg23
I441096
sg24
I272880
sg25
I2146973
sg26
I436515
sg27
I0
ssS'BANNANTINE JAMES M'
p211
(dp212
g3
I566
sg4
g5
sg6
F0.06890459363957598
sg7
I56301
sg8
I00
sg9
I-5104
sg10
S'james.bannantine@enron.com'
p213
sg12
g5
sS'total_compensation_abs_abs_abs_abs_abs_abs_abs_abs_abs_abs_abs_abs_abs_abs_abs_abs_abs_abs_abs_abs_abs_abs_abs_abs_abs_abs_abs_abs_abs_abs_abs_abs_abs_abs_abs_abs_abs_abs_abs_abs_abs_abs_abs_abs_abs_abs_abs_abs_abs_abs'
p214
I13450020
sg13
I-560222
sg14
I465
sg15
g5
sg16
I29
sg17
I864523
sg18
g5
sg19
g5
sg20
I5243487
sg21
I39
sg22
I0
sg23
I1757552
sg24
I477
sg25
I916197
sg26
I4046157
sg27
F0.0
ssS'DUNCAN JOHN H'
p215
(dp216
g3
g5
sg4
g5
sg6
I0
sS'total_compensation_abs_abs_abs_abs_abs_abs_abs_abs_abs_abs_abs_abs_abs_abs_abs_abs_abs_abs_abs_abs_abs_abs_abs_abs_abs_abs_abs_abs_abs_abs_abs_abs_abs_abs_abs_abs_abs_abs_abs_abs_abs_abs_abs_abs_abs_abs_abs_abs_abs_abs_abs'
p217
I948484
sg7
g5
sg8
I00
sg9
I-25000
sg10
g5
sg12
g5
sg13
g5
sg14
g5
sg15
g5
sg16
g5
sg17
g5
sg18
I102492
sg19
g5
sg20
I371750
sg21
g5
sg22
g5
sg23
g5
sg24
g5
sg25
I77492
sg26
I371750
sg27
I0
ssS'SHAPIRO RICHARD S'
p218
(dp219
g3
I15149
sg4
g5
sg6
F0.0048848108786058485
sg7
I137767
sg8
I00
sg9
g5
sg10
S'richard.shapiro@enron.com'
p220
sg12
g5
sg13
g5
sg14
I4527
sg15
g5
sg16
I1215
sg17
I705
sg18
g5
sg19
I650000
sg20
I987001
sg21
I74
sS'total_compensation_abs_abs_abs_abs_abs_abs_abs_abs_abs_abs_abs_abs_abs_abs_abs_abs_abs_abs_abs_abs_abs_abs_abs_abs_abs_abs_abs_abs_abs_abs_abs_abs_abs_abs_abs_abs_abs_abs_abs_abs_abs_abs_abs_abs_abs_abs_abs_abs_abs_abs_abs_abs'
p221
I4089098
sg22
I65
sg23
I379164
sg24
I269076
sg25
I1057548
sg26
I607837
sg27
F0.053497942386831275
ssS'SHERRIFF JOHN R'
p222
(dp223
g3
I3187
sg4
g5
sg6
F0.008785691873235017
sg7
g5
sg8
I00
sg9
g5
sg10
S'john.sherriff@enron.com'
p224
sg12
I554422
sS'total_compensation_abs_abs_abs_abs_abs_abs_abs_abs_abs_abs_abs_abs_abs_abs_abs_abs_abs_abs_abs_abs_abs_abs_abs_abs_abs_abs_abs_abs_abs_abs_abs_abs_abs_abs_abs_abs_abs_abs_abs_abs_abs_abs_abs_abs_abs_abs_abs_abs_abs_abs_abs_abs_abs'
p225
I14928740
sg13
g5
sg14
I2103
sg15
g5
sg16
I92
sg17
I1852186
sg18
g5
sg19
I1500000
sg20
I3128982
sg21
I28
sg22
I23
sg23
I1293424
sg24
I428780
sg25
I4335388
sg26
I1835558
sg27
F0.25
ssS'SHELBY REX'
p226
(dp227
g3
I225
sg4
g5
sg6
F0.057777777777777775
sS'total_compensation_abs_abs_abs_abs_abs_abs_abs_abs_abs_abs_abs_abs_abs_abs_abs_abs_abs_abs_abs_abs_abs_abs_abs_abs_abs_abs_abs_abs_abs_abs_abs_abs_abs_abs_abs_abs_abs_abs_abs_abs_abs_abs_abs_abs_abs_abs_abs_abs_abs_abs_abs_abs_abs_abs'
p228
I9003336
sg7
I22884
sg8
I01
sg9
I-4167
sg10
S'rex.shelby@enron.com'
p229
sg12
g5
sg13
g5
sg14
I91
sg15
g5
sg16
I39
sg17
I1573324
sg18
g5
sg19
I200000
sg20
I2493616
sg21
I13
sg22
I14
sg23
I869220
sg24
I211844
sg25
I2003885
sg26
I1624396
sg27
F0.358974358974359
ssS'LEMAISTRE CHARLES'
p230
(dp231
g3
g5
sg4
g5
sg6
I0
sg7
g5
sg8
I00
sg9
I-25000
sg10
g5
sg12
g5
sS'total_compensation_abs_abs_abs_abs_abs_abs_abs_abs_abs_abs_abs_abs_abs_abs_abs_abs_abs_abs_abs_abs_abs_abs_abs_abs_abs_abs_abs_abs_abs_abs_abs_abs_abs_abs_abs_abs_abs_abs_abs_abs_abs_abs_abs_abs_abs_abs_abs_abs_abs_abs_abs_abs_abs_abs_abs'
p232
I1050740
sg13
g5
sg14
g5
sg15
g5
sg16
g5
sg17
g5
sg18
I112492
sg19
g5
sg20
I412878
sg21
g5
sg22
g5
sg23
g5
sg24
g5
sg25
I87492
sg26
I412878
sg27
I0
ssS'DEFFNER JOSEPH M'
p233
(dp234
g3
I714
sg4
g5
sg6
F0.16106442577030813
sS'total_compensation_abs_abs_abs_abs_abs_abs_abs_abs_abs_abs_abs_abs_abs_abs_abs_abs_abs_abs_abs_abs_abs_abs_abs_abs_abs_abs_abs_abs_abs_abs_abs_abs_abs_abs_abs_abs_abs_abs_abs_abs_abs_abs_abs_abs_abs_abs_abs_abs_abs_abs_abs_abs_abs_abs_abs_abs'
p235
I2735720
sg7
I41626
sg8
I00
sg9
g5
sg10
S'joseph.deffner@enron.com'
p236
sg12
I335349
sg13
g5
sg14
I552
sg15
g5
sg16
I74
sg17
I25553
sg18
g5
sg19
I600000
sg20
I159211
sg21
I115
sg22
I4
sg23
I141833
sg24
I206121
sg25
I1208649
sg26
I17378
sg27
F0.05405405405405406
ssS'KISHKILL JOSEPH G'
p237
(dp238
g3
g5
sg4
g5
sg6
I0
sg7
I116335
sg8
I00
sg9
I-51042
sg10
S'joe.kishkill@enron.com'
p239
sg12
g5
sg13
g5
sS'total_compensation_abs_abs_abs_abs_abs_abs_abs_abs_abs_abs_abs_abs_abs_abs_abs_abs_abs_abs_abs_abs_abs_abs_abs_abs_abs_abs_abs_abs_abs_abs_abs_abs_abs_abs_abs_abs_abs_abs_abs_abs_abs_abs_abs_abs_abs_abs_abs_abs_abs_abs_abs_abs_abs_abs_abs_abs_abs'
p240
I3580568
sg14
g5
sg15
g5
sg16
g5
sg17
I465357
sg18
g5
sg19
g5
sg20
I1034346
sg21
g5
sg22
g5
sg23
I1034346
sg24
I174246
sg25
I704896
sg26
g5
sg27
I0
ssS'WHALLEY LAWRENCE G'
p241
(dp242
g3
I6019
sg4
g5
sg6
F0.03090214321315833
sg7
I57838
sg8
I00
sg9
g5
sg10
S'greg.whalley@enron.com'
p243
sg12
I808346
sg13
g5
sg14
I3920
sg15
g5
sg16
I556
sg17
I301026
sS'total_compensation_abs_abs_abs_abs_abs_abs_abs_abs_abs_abs_abs_abs_abs_abs_abs_abs_abs_abs_abs_abs_abs_abs_abs_abs_abs_abs_abs_abs_abs_abs_abs_abs_abs_abs_abs_abs_abs_abs_abs_abs_abs_abs_abs_abs_abs_abs_abs_abs_abs_abs_abs_abs_abs_abs_abs_abs_abs_abs'
p244
I21513422
sg18
g5
sg19
I3000000
sg20
I6079137
sg21
I186
sg22
I24
sg23
I2796177
sg24
I510364
sg25
I4677574
sg26
I3282960
sg27
F0.04316546762589928
ssS'MCCONNELL MICHAEL S'
p245
(dp246
g3
I3329
sg4
g5
sg6
F0.02763592670471613
sg7
I81364
sg8
I00
sg9
g5
sg10
S'mike.mcconnell@enron.com'
p247
sg12
I554422
sg13
g5
sg14
I2189
sg15
g5
sg16
I2742
sg17
I540
sg18
g5
sg19
I1100000
sg20
I3101279
sg21
I92
sg22
I194
sS'total_compensation_abs_abs_abs_abs_abs_abs_abs_abs_abs_abs_abs_abs_abs_abs_abs_abs_abs_abs_abs_abs_abs_abs_abs_abs_abs_abs_abs_abs_abs_abs_abs_abs_abs_abs_abs_abs_abs_abs_abs_abs_abs_abs_abs_abs_abs_abs_abs_abs_abs_abs_abs_abs_abs_abs_abs_abs_abs_abs_abs'
p248
I10405286
sg23
I1478269
sg24
I365038
sg25
I2101364
sg26
I1623010
sg27
F0.07075127644055434
ssS'PIRO JIM'
p249
(dp250
g3
I58
sg4
g5
sg6
F0.0
sg7
g5
sg8
I00
sg9
g5
sg10
S'jim.piro@enron.com'
p251
sg12
g5
sg13
g5
sg14
I3
sg15
g5
sg16
I16
sg17
g5
sg18
g5
sS'total_compensation_abs_abs_abs_abs_abs_abs_abs_abs_abs_abs_abs_abs_abs_abs_abs_abs_abs_abs_abs_abs_abs_abs_abs_abs_abs_abs_abs_abs_abs_abs_abs_abs_abs_abs_abs_abs_abs_abs_abs_abs_abs_abs_abs_abs_abs_abs_abs_abs_abs_abs_abs_abs_abs_abs_abs_abs_abs_abs_abs_abs'
p252
I94608
sg19
g5
sg20
I47304
sg21
I0
sg22
I1
sg23
I47304
sg24
g5
sg25
g5
sg26
g5
sg27
F0.0625
ssS'DELAINEY DAVID W'
p253
(dp254
g3
I3093
sg4
g5
sg6
F0.02133850630455868
sg7
I86174
sS'total_compensation_abs_abs_abs_abs_abs_abs_abs_abs_abs_abs_abs_abs_abs_abs_abs_abs_abs_abs_abs_abs_abs_abs_abs_abs_abs_abs_abs_abs_abs_abs_abs_abs_abs_abs_abs_abs_abs_abs_abs_abs_abs_abs_abs_abs_abs_abs_abs_abs_abs_abs_abs_abs_abs_abs_abs_abs_abs_abs_abs_abs_abs'
p255
I16724480
sg8
I01
sg9
g5
sg10
S'david.delainey@enron.com'
p256
sg12
I1294981
sg13
g5
sg14
I2097
sg15
g5
sg16
I3069
sg17
I1661
sg18
g5
sg19
I3000000
sg20
I3614261
sg21
I66
sg22
I609
sg23
I1323148
sg24
I365163
sg25
I4747979
sg26
I2291113
sg27
F0.198435972629521
ssS'SULLIVAN-SHAKLOVITZ COLLEEN'
p257
(dp258
g3
g5
sg4
I181993
sg6
I0
sg7
g5
sg8
I00
sg9
g5
sg10
g5
sg12
I554422
sg13
g5
sg14
g5
sg15
g5
sg16
g5
sg17
I162
sg18
g5
sg19
I100000
sg20
I1362375
sg21
g5
sg22
g5
sg23
g5
sg24
I162779
sg25
I999356
sg26
I1362375
sg27
I0
sS'total_compensation_abs_abs_abs_abs_abs_abs_abs_abs_abs_abs_abs_abs_abs_abs_abs_abs_abs_abs_abs_abs_abs_abs_abs_abs_abs_abs_abs_abs_abs_abs_abs_abs_abs_abs_abs_abs_abs_abs_abs_abs_abs_abs_abs_abs_abs_abs_abs_abs_abs_abs_abs_abs_abs_abs_abs_abs_abs_abs_abs_abs_abs_abs'
p259
I4723462
ssS'WROBEL BRUCE'
p260
(dp261
g3
g5
sg4
g5
sg6
I0
sg7
g5
sS'total_compensation_abs_abs_abs_abs_abs_abs_abs_abs_abs_abs_abs_abs_abs_abs_abs_abs_abs_abs_abs_abs_abs_abs_abs_abs_abs_abs_abs_abs_abs_abs_abs_abs_abs_abs_abs_abs_abs_abs_abs_abs_abs_abs_abs_abs_abs_abs_abs_abs_abs_abs_abs_abs_abs_abs_abs_abs_abs_abs_abs_abs_abs_abs_abs'
p262
I278260
sg8
I00
sg9
g5
sg10
g5
sg12
g5
sg13
g5
sg14
g5
sg15
g5
sg16
g5
sg17
g5
sg18
g5
sg19
g5
sg20
I139130
sg21
g5
sg22
g5
sg23
g5
sg24
g5
sg25
g5
sg26
I139130
sg27
I0
ssS'LINDHOLM TOD A'
p263
(dp264
g3
g5
sg4
I204075
sg6
I0
sg7
I57727
sg8
I00
sg9
g5
sg10
S'tod.lindholm@enron.com'
p265
sg12
I175000
sg13
g5
sg14
g5
sg15
g5
sg16
g5
sg17
I2630
sg18
g5
sg19
I200000
sg20
I3064208
sg21
g5
sg22
g5
sS'total_compensation_abs_abs_abs_abs_abs_abs_abs_abs_abs_abs_abs_abs_abs_abs_abs_abs_abs_abs_abs_abs_abs_abs_abs_abs_abs_abs_abs_abs_abs_abs_abs_abs_abs_abs_abs_abs_abs_abs_abs_abs_abs_abs_abs_abs_abs_abs_abs_abs_abs_abs_abs_abs_abs_abs_abs_abs_abs_abs_abs_abs_abs_abs_abs_abs'
p266
I7880194
sg23
I514847
sg24
I236457
sg25
I875889
sg26
I2549361
sg27
I0
ssS'MEYER JEROME J'
p267
(dp268
g3
g5
sg4
g5
sg6
I0
sg7
I2151
sg8
I00
sg9
I-38346
sg10
g5
sg12
g5
sg13
g5
sg14
g5
sg15
g5
sg16
g5
sg17
g5
sg18
I38346
sg19
g5
sg20
g5
sg21
g5
sg22
g5
sg23
g5
sg24
g5
sg25
I2151
sg26
g5
sg27
I0
sS'total_compensation_abs_abs_abs_abs_abs_abs_abs_abs_abs_abs_abs_abs_abs_abs_abs_abs_abs_abs_abs_abs_abs_abs_abs_abs_abs_abs_abs_abs_abs_abs_abs_abs_abs_abs_abs_abs_abs_abs_abs_abs_abs_abs_abs_abs_abs_abs_abs_abs_abs_abs_abs_abs_abs_abs_abs_abs_abs_abs_abs_abs_abs_abs_abs_abs_abs'
p269
I80994
ssS'LAY KENNETH L'
p270
(dp271
g3
I4273
sg4
I202911
sg6
F0.028785396676807865
sg7
I99832
sg8
I01
sg9
I-300000
sg10
S'kenneth.lay@enron.com'
p272
sg12
I3600000
sg13
g5
sg14
I2411
sg15
I81525000
sg16
I36
sg17
I10359729
sg18
g5
sS'total_compensation_abs_abs_abs_abs_abs_abs_abs_abs_abs_abs_abs_abs_abs_abs_abs_abs_abs_abs_abs_abs_abs_abs_abs_abs_abs_abs_abs_abs_abs_abs_abs_abs_abs_abs_abs_abs_abs_abs_abs_abs_abs_abs_abs_abs_abs_abs_abs_abs_abs_abs_abs_abs_abs_abs_abs_abs_abs_abs_abs_abs_abs_abs_abs_abs_abs_abs'
p273
I305939742
sg19
I7000000
sg20
I49110078
sg21
I123
sg22
I16
sg23
I14761694
sg24
I1072321
sg25
I103559793
sg26
I34348384
sg27
F0.4444444444444444
ssS'BUTTS ROBERT H'
p274
(dp275
g3
g5
sg4
g5
sg6
I0
sg7
I9410
sg8
I00
sg9
I-75000
sg10
S'bob.butts@enron.com'
p276
sg12
I175000
sg13
g5
sg14
g5
sg15
g5
sg16
g5
sg17
I150656
sg18
g5
sg19
I750000
sg20
I417619
sg21
g5
sg22
g5
sg23
I417619
sg24
I261516
sg25
I1271582
sS'total_compensation_abs_abs_abs_abs_abs_abs_abs_abs_abs_abs_abs_abs_abs_abs_abs_abs_abs_abs_abs_abs_abs_abs_abs_abs_abs_abs_abs_abs_abs_abs_abs_abs_abs_abs_abs_abs_abs_abs_abs_abs_abs_abs_abs_abs_abs_abs_abs_abs_abs_abs_abs_abs_abs_abs_abs_abs_abs_abs_abs_abs_abs_abs_abs_abs_abs_abs_abs'
p277
I3528402
sg26
g5
sg27
I0
ssS'OLSON CINDY K'
p278
(dp279
g3
I1184
sg4
I77716
sg6
F0.016891891891891893
sg7
I63791
sg8
I00
sg9
g5
sg10
S'cindy.olson@enron.com'
p280
sg12
I100000
sS'total_compensation_abs_abs_abs_abs_abs_abs_abs_abs_abs_abs_abs_abs_abs_abs_abs_abs_abs_abs_abs_abs_abs_abs_abs_abs_abs_abs_abs_abs_abs_abs_abs_abs_abs_abs_abs_abs_abs_abs_abs_abs_abs_abs_abs_abs_abs_abs_abs_abs_abs_abs_abs_abs_abs_abs_abs_abs_abs_abs_abs_abs_abs_abs_abs_abs_abs_abs_abs_abs'
p281
I7856640
sg13
g5
sg14
I856
sg15
g5
sg16
I52
sg17
I972
sg18
g5
sg19
I750000
sg20
I2606763
sg21
I20
sg22
I15
sg23
I969729
sg24
I329078
sg25
I1321557
sg26
I1637034
sg27
F0.28846153846153844
ssS'MCDONALD REBECCA'
p282
(dp283
g3
I894
sg4
g5
sg6
F0.06040268456375839
sg7
g5
sg8
I00
sg9
g5
sg10
S'rebecca.mcdonald@enron.com'
p284
sg12
g5
sg13
g5
sg14
I720
sg15
g5
sg16
I13
sg17
g5
sg18
g5
sS'total_compensation_abs_abs_abs_abs_abs_abs_abs_abs_abs_abs_abs_abs_abs_abs_abs_abs_abs_abs_abs_abs_abs_abs_abs_abs_abs_abs_abs_abs_abs_abs_abs_abs_abs_abs_abs_abs_abs_abs_abs_abs_abs_abs_abs_abs_abs_abs_abs_abs_abs_abs_abs_abs_abs_abs_abs_abs_abs_abs_abs_abs_abs_abs_abs_abs_abs_abs_abs_abs_abs'
p285
I3382732
sg19
g5
sg20
I1691366
sg21
I54
sg22
I1
sg23
I934065
sg24
g5
sg25
g5
sg26
I757301
sg27
F0.07692307692307693
ssS'CUMBERLAND MICHAEL S'
p286
(dp287
g3
g5
sg4
g5
sg6
I0
sg7
I22344
sg8
I00
sg9
g5
sg10
g5
sg12
I275000
sg13
g5
sg14
g5
sg15
g5
sg16
g5
sg17
I713
sg18
g5
sg19
I325000
sg20
I207940
sg21
g5
sg22
g5
sg23
I207940
sg24
I184899
sg25
I807956
sS'total_compensation_abs_abs_abs_abs_abs_abs_abs_abs_abs_abs_abs_abs_abs_abs_abs_abs_abs_abs_abs_abs_abs_abs_abs_abs_abs_abs_abs_abs_abs_abs_abs_abs_abs_abs_abs_abs_abs_abs_abs_abs_abs_abs_abs_abs_abs_abs_abs_abs_abs_abs_abs_abs_abs_abs_abs_abs_abs_abs_abs_abs_abs_abs_abs_abs_abs_abs_abs_abs_abs_abs'
p288
I2031792
sg26
g5
sg27
I0
ssS'GAHN ROBERT S'
p289
(dp290
g3
g5
sg4
I73122
sg6
I0
sg7
I50080
sg8
I00
sg9
I-1042
sg10
g5
sg12
g5
sg13
g5
sg14
g5
sg15
g5
sg16
g5
sg17
I76547
sg18
g5
sS'total_compensation_abs_abs_abs_abs_abs_abs_abs_abs_abs_abs_abs_abs_abs_abs_abs_abs_abs_abs_abs_abs_abs_abs_abs_abs_abs_abs_abs_abs_abs_abs_abs_abs_abs_abs_abs_abs_abs_abs_abs_abs_abs_abs_abs_abs_abs_abs_abs_abs_abs_abs_abs_abs_abs_abs_abs_abs_abs_abs_abs_abs_abs_abs_abs_abs_abs_abs_abs_abs_abs_abs_abs'
p291
I2440468
sg19
I509870
sg20
I318607
sg21
g5
sg22
g5
sg23
I235370
sg24
I192008
sg25
I900585
sg26
I83237
sg27
I0
ssS'MCCLELLAN GEORGE'
p292
(dp293
g3
I1744
sg4
g5
sg6
F0.02981651376146789
sg7
I228763
sg8
I00
sg9
I-125000
sg10
S'george.mcclellan@enron.com'
p294
sg12
g5
sg13
g5
sg14
I1469
sg15
g5
sg16
I49
sg17
I51587
sg18
g5
sg19
I900000
sg20
I947861
sg21
I52
sg22
I0
sg23
I441096
sg24
I263413
sg25
I1318763
sS'total_compensation_abs_abs_abs_abs_abs_abs_abs_abs_abs_abs_abs_abs_abs_abs_abs_abs_abs_abs_abs_abs_abs_abs_abs_abs_abs_abs_abs_abs_abs_abs_abs_abs_abs_abs_abs_abs_abs_abs_abs_abs_abs_abs_abs_abs_abs_abs_abs_abs_abs_abs_abs_abs_abs_abs_abs_abs_abs_abs_abs_abs_abs_abs_abs_abs_abs_abs_abs_abs_abs_abs_abs_abs'
p295
I4783248
sg26
I506765
sg27
F0.0
ssS'HERMANN ROBERT J'
p296
(dp297
g3
g5
sg4
g5
sg6
I0
sg7
I48357
sg8
I00
sg9
I-280000
sg10
S'robert.hermann@enron.com'
p298
sg12
I150000
sg13
g5
sg14
g5
sg15
g5
sg16
g5
sg17
I416441
sg18
g5
sg19
I700000
sS'total_compensation_abs_abs_abs_abs_abs_abs_abs_abs_abs_abs_abs_abs_abs_abs_abs_abs_abs_abs_abs_abs_abs_abs_abs_abs_abs_abs_abs_abs_abs_abs_abs_abs_abs_abs_abs_abs_abs_abs_abs_abs_abs_abs_abs_abs_abs_abs_abs_abs_abs_abs_abs_abs_abs_abs_abs_abs_abs_abs_abs_abs_abs_abs_abs_abs_abs_abs_abs_abs_abs_abs_abs_abs_abs'
p299
I4491186
sg20
I668132
sg21
g5
sg22
g5
sg23
I480632
sg24
I262663
sg25
I1297461
sg26
I187500
sg27
I0
ssS'SCRIMSHAW MATTHEW'
p300
(dp301
g3
g5
sg4
g5
sg6
I0
sg7
g5
sS'total_compensation_abs_abs_abs_abs_abs_abs_abs_abs_abs_abs_abs_abs_abs_abs_abs_abs_abs_abs_abs_abs_abs_abs_abs_abs_abs_abs_abs_abs_abs_abs_abs_abs_abs_abs_abs_abs_abs_abs_abs_abs_abs_abs_abs_abs_abs_abs_abs_abs_abs_abs_abs_abs_abs_abs_abs_abs_abs_abs_abs_abs_abs_abs_abs_abs_abs_abs_abs_abs_abs_abs_abs_abs_abs_abs'
p302
I1519114
sg8
I00
sg9
g5
sg10
S'matthew.scrimshaw@enron.com'
p303
sg12
g5
sg13
g5
sg14
g5
sg15
g5
sg16
g5
sg17
g5
sg18
g5
sg19
g5
sg20
I759557
sg21
g5
sg22
g5
sg23
g5
sg24
g5
sg25
g5
sg26
I759557
sg27
I0
ssS'GATHMANN WILLIAM D'
p304
(dp305
g3
g5
sg4
g5
sg6
I0
sg7
g5
sg8
I00
sg9
g5
sg10
g5
sg12
g5
sg13
I-72419
sg14
g5
sg15
g5
sg16
g5
sg17
g5
sg18
g5
sg19
g5
sg20
I1945360
sg21
g5
sg22
g5
sg23
I264013
sg24
g5
sg25
g5
sg26
I1753766
sS'total_compensation_abs_abs_abs_abs_abs_abs_abs_abs_abs_abs_abs_abs_abs_abs_abs_abs_abs_abs_abs_abs_abs_abs_abs_abs_abs_abs_abs_abs_abs_abs_abs_abs_abs_abs_abs_abs_abs_abs_abs_abs_abs_abs_abs_abs_abs_abs_abs_abs_abs_abs_abs_abs_abs_abs_abs_abs_abs_abs_abs_abs_abs_abs_abs_abs_abs_abs_abs_abs_abs_abs_abs_abs_abs_abs_abs'
p306
I4035558
sg27
I0
ssS'HAEDICKE MARK E'
p307
(dp308
g3
I4009
sg4
I2157527
sg6
F0.04489897730107259
sg7
I76169
sg8
I00
sg9
I-934484
sg10
S'mark.haedicke@enron.com'
p309
sg12
I983346
sg13
I-329825
sg14
I1847
sg15
g5
sg16
I1941
sg17
I52382
sg18
g5
sg19
I1150000
sg20
I803094
sg21
I180
sg22
I61
sg23
I524169
sg24
I374125
sS'total_compensation_abs_abs_abs_abs_abs_abs_abs_abs_abs_abs_abs_abs_abs_abs_abs_abs_abs_abs_abs_abs_abs_abs_abs_abs_abs_abs_abs_abs_abs_abs_abs_abs_abs_abs_abs_abs_abs_abs_abs_abs_abs_abs_abs_abs_abs_abs_abs_abs_abs_abs_abs_abs_abs_abs_abs_abs_abs_abs_abs_abs_abs_abs_abs_abs_abs_abs_abs_abs_abs_abs_abs_abs_abs_abs_abs_abs'
p310
I11852936
sg25
I3859065
sg26
I608750
sg27
F0.03142709943328181
ssS'BOWEN JR RAYMOND M'
p311
(dp312
g3
I1858
sg4
g5
sg6
F0.07534983853606028
sg7
I65907
sg8
I01
sg9
I-833
sg10
S'raymond.bowen@enron.com'
p313
sg12
I974293
sg13
g5
sg14
I1593
sg15
g5
sg16
I27
sg17
I1621
sg18
g5
sg19
I1350000
sg20
I252055
sg21
I140
sg22
I15
sg23
I252055
sg24
I278601
sg25
I2669589
sg26
g5
sS'total_compensation_abs_abs_abs_abs_abs_abs_abs_abs_abs_abs_abs_abs_abs_abs_abs_abs_abs_abs_abs_abs_abs_abs_abs_abs_abs_abs_abs_abs_abs_abs_abs_abs_abs_abs_abs_abs_abs_abs_abs_abs_abs_abs_abs_abs_abs_abs_abs_abs_abs_abs_abs_abs_abs_abs_abs_abs_abs_abs_abs_abs_abs_abs_abs_abs_abs_abs_abs_abs_abs_abs_abs_abs_abs_abs_abs_abs_abs'
p314
I5844954
sg27
F0.5555555555555556
ssS'GILLIS JOHN'
p315
(dp316
g3
g5
sg4
g5
sg6
I0
sg7
g5
sS'total_compensation_abs_abs_abs_abs_abs_abs_abs_abs_abs_abs_abs_abs_abs_abs_abs_abs_abs_abs_abs_abs_abs_abs_abs_abs_abs_abs_abs_abs_abs_abs_abs_abs_abs_abs_abs_abs_abs_abs_abs_abs_abs_abs_abs_abs_abs_abs_abs_abs_abs_abs_abs_abs_abs_abs_abs_abs_abs_abs_abs_abs_abs_abs_abs_abs_abs_abs_abs_abs_abs_abs_abs_abs_abs_abs_abs_abs_abs_abs'
p317
I171282
sg8
I00
sg9
g5
sg10
g5
sg12
g5
sg13
g5
sg14
g5
sg15
g5
sg16
g5
sg17
g5
sg18
g5
sg19
g5
sg20
I85641
sg21
g5
sg22
g5
sg23
I75838
sg24
g5
sg25
g5
sg26
I9803
sg27
I0
ssS'FITZGERALD JAY L'
p318
(dp319
g3
I936
sg4
g5
sg6
F0.0010683760683760685
sg7
I23870
sg8
I00
sg9
g5
sg10
S'jay.fitzgerald@enron.com'
p320
sg12
I556416
sg13
g5
sg14
I723
sg15
g5
sg16
I16
sg17
I285414
sg18
g5
sg19
I350000
sg20
I1621236
sg21
I1
sg22
I8
sg23
I956775
sg24
I199157
sg25
I1414857
sS'total_compensation_abs_abs_abs_abs_abs_abs_abs_abs_abs_abs_abs_abs_abs_abs_abs_abs_abs_abs_abs_abs_abs_abs_abs_abs_abs_abs_abs_abs_abs_abs_abs_abs_abs_abs_abs_abs_abs_abs_abs_abs_abs_abs_abs_abs_abs_abs_abs_abs_abs_abs_abs_abs_abs_abs_abs_abs_abs_abs_abs_abs_abs_abs_abs_abs_abs_abs_abs_abs_abs_abs_abs_abs_abs_abs_abs_abs_abs_abs_abs'
p321
I6072186
sg26
I664461
sg27
F0.5
ssS'MORAN MICHAEL P'
p322
(dp323
g3
I672
sg4
g5
sg6
F0.0
sg7
g5
sg8
I00
sg9
g5
sg10
S'michael.moran@enron.com'
p324
sg12
g5
sg13
g5
sg14
I127
sg15
g5
sg16
I19
sg17
g5
sg18
g5
sg19
g5
sg20
I221141
sg21
I0
sg22
I0
sg23
I161602
sg24
g5
sg25
g5
sg26
I59539
sS'total_compensation_abs_abs_abs_abs_abs_abs_abs_abs_abs_abs_abs_abs_abs_abs_abs_abs_abs_abs_abs_abs_abs_abs_abs_abs_abs_abs_abs_abs_abs_abs_abs_abs_abs_abs_abs_abs_abs_abs_abs_abs_abs_abs_abs_abs_abs_abs_abs_abs_abs_abs_abs_abs_abs_abs_abs_abs_abs_abs_abs_abs_abs_abs_abs_abs_abs_abs_abs_abs_abs_abs_abs_abs_abs_abs_abs_abs_abs_abs_abs_abs'
p325
I442282
sg27
F0.0
ssS'REDMOND BRIAN L'
p326
(dp327
g3
I1671
sg4
g5
sg6
F0.12208258527827648
sg7
I14689
sg8
I00
sg9
g5
sg10
S'brian.redmond@enron.com'
p328
sg12
g5
sS'total_compensation_abs_abs_abs_abs_abs_abs_abs_abs_abs_abs_abs_abs_abs_abs_abs_abs_abs_abs_abs_abs_abs_abs_abs_abs_abs_abs_abs_abs_abs_abs_abs_abs_abs_abs_abs_abs_abs_abs_abs_abs_abs_abs_abs_abs_abs_abs_abs_abs_abs_abs_abs_abs_abs_abs_abs_abs_abs_abs_abs_abs_abs_abs_abs_abs_abs_abs_abs_abs_abs_abs_abs_abs_abs_abs_abs_abs_abs_abs_abs_abs_abs'
p329
I16003706
sg13
g5
sg14
I1063
sg15
g5
sg16
I221
sg17
g5
sg18
g5
sg19
g5
sg20
I7890324
sg21
I204
sg22
I49
sg23
I381285
sg24
I96840
sg25
I111529
sg26
I7509039
sg27
F0.22171945701357465
ssS'BAZELIDES PHILIP J'
p330
(dp331
g3
g5
sg4
I684694
sg6
I0
sg7
g5
sg8
I00
sg9
g5
sg10
g5
sg12
I93750
sg13
g5
sg14
g5
sg15
g5
sg16
g5
sg17
I874
sg18
g5
sg19
g5
sg20
I1599641
sg21
g5
sg22
g5
sg23
g5
sg24
I80818
sS'total_compensation_abs_abs_abs_abs_abs_abs_abs_abs_abs_abs_abs_abs_abs_abs_abs_abs_abs_abs_abs_abs_abs_abs_abs_abs_abs_abs_abs_abs_abs_abs_abs_abs_abs_abs_abs_abs_abs_abs_abs_abs_abs_abs_abs_abs_abs_abs_abs_abs_abs_abs_abs_abs_abs_abs_abs_abs_abs_abs_abs_abs_abs_abs_abs_abs_abs_abs_abs_abs_abs_abs_abs_abs_abs_abs_abs_abs_abs_abs_abs_abs_abs_abs'
p332
I4919554
sg25
I860136
sg26
I1599641
sg27
I0
ssS'BELDEN TIMOTHY N'
p333
(dp334
g3
I7991
sg4
I2144013
sg6
F0.028532098610937303
sg7
I17355
sg8
I01
sg9
I-2334434
sg10
S'tim.belden@enron.com'
p335
sg12
g5
sg13
g5
sg14
I5521
sg15
g5
sg16
I484
sg17
I210698
sg18
g5
sg19
I5249999
sg20
I1110705
sg21
I228
sS'total_compensation_abs_abs_abs_abs_abs_abs_abs_abs_abs_abs_abs_abs_abs_abs_abs_abs_abs_abs_abs_abs_abs_abs_abs_abs_abs_abs_abs_abs_abs_abs_abs_abs_abs_abs_abs_abs_abs_abs_abs_abs_abs_abs_abs_abs_abs_abs_abs_abs_abs_abs_abs_abs_abs_abs_abs_abs_abs_abs_abs_abs_abs_abs_abs_abs_abs_abs_abs_abs_abs_abs_abs_abs_abs_abs_abs_abs_abs_abs_abs_abs_abs_abs_abs'
p336
I17893538
sg22
I108
sg23
I157569
sg24
I213999
sg25
I5501630
sg26
I953136
sg27
F0.2231404958677686
ssS'DURAN WILLIAM D'
p337
(dp338
g3
I904
sg4
g5
sg6
F0.1172566371681416
sg7
I25785
sS'total_compensation_abs_abs_abs_abs_abs_abs_abs_abs_abs_abs_abs_abs_abs_abs_abs_abs_abs_abs_abs_abs_abs_abs_abs_abs_abs_abs_abs_abs_abs_abs_abs_abs_abs_abs_abs_abs_abs_abs_abs_abs_abs_abs_abs_abs_abs_abs_abs_abs_abs_abs_abs_abs_abs_abs_abs_abs_abs_abs_abs_abs_abs_abs_abs_abs_abs_abs_abs_abs_abs_abs_abs_abs_abs_abs_abs_abs_abs_abs_abs_abs_abs_abs_abs_abs'
p339
I7468346
sg8
I00
sg9
g5
sg10
S'w.duran@enron.com'
p340
sg12
I1105218
sg13
g5
sg14
I599
sg15
g5
sg16
I12
sg17
I1568
sg18
g5
sg19
I750000
sg20
I1640910
sg21
I106
sg22
I3
sg23
I189041
sg24
I210692
sg25
I2093263
sg26
I1451869
sg27
F0.25
ssS'THORN TERENCE H'
p341
(dp342
g3
I266
sg4
I16586
sg6
F0.0
sg7
I46145
sg8
I00
sg9
g5
sg10
S'terence.thorn@enron.com'
p343
sg12
I200000
sg13
g5
sg14
I73
sg15
g5
sg16
I41
sg17
I426629
sg18
g5
sg19
g5
sg20
I4817796
sg21
I0
sg22
I0
sg23
I365320
sg24
I222093
sS'total_compensation_abs_abs_abs_abs_abs_abs_abs_abs_abs_abs_abs_abs_abs_abs_abs_abs_abs_abs_abs_abs_abs_abs_abs_abs_abs_abs_abs_abs_abs_abs_abs_abs_abs_abs_abs_abs_abs_abs_abs_abs_abs_abs_abs_abs_abs_abs_abs_abs_abs_abs_abs_abs_abs_abs_abs_abs_abs_abs_abs_abs_abs_abs_abs_abs_abs_abs_abs_abs_abs_abs_abs_abs_abs_abs_abs_abs_abs_abs_abs_abs_abs_abs_abs_abs_abs'
p344
I11458498
sg25
I911453
sg26
I4452476
sg27
F0.0
ssS'FASTOW ANDREW S'
p345
(dp346
g3
g5
sg4
g5
sg6
I0
sg7
I55921
sg8
I01
sg9
I-1386055
sg10
S'andrew.fastow@enron.com'
p347
sg12
I1736055
sg13
g5
sg14
g5
sg15
g5
sg16
g5
sg17
I277464
sg18
g5
sg19
I1300000
sS'total_compensation_abs_abs_abs_abs_abs_abs_abs_abs_abs_abs_abs_abs_abs_abs_abs_abs_abs_abs_abs_abs_abs_abs_abs_abs_abs_abs_abs_abs_abs_abs_abs_abs_abs_abs_abs_abs_abs_abs_abs_abs_abs_abs_abs_abs_abs_abs_abs_abs_abs_abs_abs_abs_abs_abs_abs_abs_abs_abs_abs_abs_abs_abs_abs_abs_abs_abs_abs_abs_abs_abs_abs_abs_abs_abs_abs_abs_abs_abs_abs_abs_abs_abs_abs_abs_abs_abs'
p348
I11209100
sg20
I1794412
sg21
g5
sg22
g5
sg23
I1794412
sg24
I440698
sg25
I2424083
sg26
g5
sg27
I0
ssS'FOY JOE'
p349
(dp350
g3
I57
sg4
I181755
sg6
F0.0
sg7
g5
sg8
I00
sg9
g5
sg10
S'tracy.foy@enron.com'
p351
sg12
g5
sg13
g5
sg14
I2
sg15
g5
sg16
I13
sg17
g5
sg18
g5
sS'total_compensation_abs_abs_abs_abs_abs_abs_abs_abs_abs_abs_abs_abs_abs_abs_abs_abs_abs_abs_abs_abs_abs_abs_abs_abs_abs_abs_abs_abs_abs_abs_abs_abs_abs_abs_abs_abs_abs_abs_abs_abs_abs_abs_abs_abs_abs_abs_abs_abs_abs_abs_abs_abs_abs_abs_abs_abs_abs_abs_abs_abs_abs_abs_abs_abs_abs_abs_abs_abs_abs_abs_abs_abs_abs_abs_abs_abs_abs_abs_abs_abs_abs_abs_abs_abs_abs_abs_abs'
p352
I1050378
sg19
g5
sg20
I343434
sg21
I0
sg22
I0
sg23
g5
sg24
g5
sg25
I181755
sg26
I343434
sg27
F0.0
ssS'CALGER CHRISTOPHER F'
p353
(dp354
g3
I2598
sg4
g5
sg6
F0.07659738260200154
sg7
I35818
sg8
I01
sg9
I-262500
sg10
S'christopher.calger@enron.com'
p355
sg12
I375304
sg13
g5
sg14
I2188
sg15
g5
sg16
I144
sg17
I486
sg18
g5
sg19
I1250000
sS'total_compensation_abs_abs_abs_abs_abs_abs_abs_abs_abs_abs_abs_abs_abs_abs_abs_abs_abs_abs_abs_abs_abs_abs_abs_abs_abs_abs_abs_abs_abs_abs_abs_abs_abs_abs_abs_abs_abs_abs_abs_abs_abs_abs_abs_abs_abs_abs_abs_abs_abs_abs_abs_abs_abs_abs_abs_abs_abs_abs_abs_abs_abs_abs_abs_abs_abs_abs_abs_abs_abs_abs_abs_abs_abs_abs_abs_abs_abs_abs_abs_abs_abs_abs_abs_abs_abs_abs_abs_abs'
p356
I4055648
sg20
I126027
sg21
I199
sg22
I25
sg23
I126027
sg24
I240189
sg25
I1639297
sg26
g5
sg27
F0.1736111111111111
ssS'RICE KENNETH D'
p357
(dp358
g3
I905
sg4
g5
sg6
F0.04640883977900553
sg7
I46950
sg8
I01
sg9
I-3504386
sg10
S'ken.rice@enron.com'
p359
sg12
I1617011
sg13
g5
sg14
I864
sg15
g5
sg16
I18
sg17
I174839
sg18
g5
sg19
I1750000
sg20
I22542539
sg21
I42
sg22
I4
sg23
I2748364
sg24
I420636
sg25
I505050
sS'total_compensation_abs_abs_abs_abs_abs_abs_abs_abs_abs_abs_abs_abs_abs_abs_abs_abs_abs_abs_abs_abs_abs_abs_abs_abs_abs_abs_abs_abs_abs_abs_abs_abs_abs_abs_abs_abs_abs_abs_abs_abs_abs_abs_abs_abs_abs_abs_abs_abs_abs_abs_abs_abs_abs_abs_abs_abs_abs_abs_abs_abs_abs_abs_abs_abs_abs_abs_abs_abs_abs_abs_abs_abs_abs_abs_abs_abs_abs_abs_abs_abs_abs_abs_abs_abs_abs_abs_abs_abs_abs'
p360
I53103950
sg26
I19794175
sg27
F0.2222222222222222
ssS'KAMINSKI WINCENTY J'
p361
(dp362
g3
I4607
sg4
g5
sg6
F0.008899500759713479
sg7
I83585
sg8
I00
sg9
g5
sg10
S'vince.kaminski@enron.com'
p363
sg12
I323466
sg13
g5
sg14
I583
sg15
g5
sg16
I14368
sg17
I4669
sg18
g5
sg19
I400000
sg20
I976037
sg21
I41
sg22
I171
sg23
I126027
sg24
I275101
sg25
I1086821
sg26
I850010
sS'total_compensation_abs_abs_abs_abs_abs_abs_abs_abs_abs_abs_abs_abs_abs_abs_abs_abs_abs_abs_abs_abs_abs_abs_abs_abs_abs_abs_abs_abs_abs_abs_abs_abs_abs_abs_abs_abs_abs_abs_abs_abs_abs_abs_abs_abs_abs_abs_abs_abs_abs_abs_abs_abs_abs_abs_abs_abs_abs_abs_abs_abs_abs_abs_abs_abs_abs_abs_abs_abs_abs_abs_abs_abs_abs_abs_abs_abs_abs_abs_abs_abs_abs_abs_abs_abs_abs_abs_abs_abs_abs_abs'
p364
I4125716
sg27
F0.011901447661469933
ssS'LOCKHART EUGENE E'
p365
(dp366
g3
g5
sg4
g5
sg6
I0
sg7
g5
sg8
I00
sS'total_compensation_abs_abs_abs_abs_abs_abs_abs_abs_abs_abs_abs_abs_abs_abs_abs_abs_abs_abs_abs_abs_abs_abs_abs_abs_abs_abs_abs_abs_abs_abs_abs_abs_abs_abs_abs_abs_abs_abs_abs_abs_abs_abs_abs_abs_abs_abs_abs_abs_abs_abs_abs_abs_abs_abs_abs_abs_abs_abs_abs_abs_abs_abs_abs_abs_abs_abs_abs_abs_abs_abs_abs_abs_abs_abs_abs_abs_abs_abs_abs_abs_abs_abs_abs_abs_abs_abs_abs_abs_abs_abs_abs'
p367
I0
sg9
g5
sg10
g5
sg12
g5
sg13
g5
sg14
g5
sg15
g5
sg16
g5
sg17
g5
sg18
g5
sg19
g5
sg20
g5
sg21
g5
sg22
g5
sg23
g5
sg24
g5
sg25
g5
sg26
g5
sg27
I0
ssS'COX DAVID'
p368
(dp369
g3
I102
sg4
g5
sg6
F0.0
sg7
I27861
sg8
I00
sg9
I-41250
sg10
S'chip.cox@enron.com'
p370
sg12
g5
sg13
g5
sg14
I71
sg15
g5
sg16
I33
sg17
I494
sg18
g5
sg19
I800000
sS'total_compensation_abs_abs_abs_abs_abs_abs_abs_abs_abs_abs_abs_abs_abs_abs_abs_abs_abs_abs_abs_abs_abs_abs_abs_abs_abs_abs_abs_abs_abs_abs_abs_abs_abs_abs_abs_abs_abs_abs_abs_abs_abs_abs_abs_abs_abs_abs_abs_abs_abs_abs_abs_abs_abs_abs_abs_abs_abs_abs_abs_abs_abs_abs_abs_abs_abs_abs_abs_abs_abs_abs_abs_abs_abs_abs_abs_abs_abs_abs_abs_abs_abs_abs_abs_abs_abs_abs_abs_abs_abs_abs_abs_abs'
p371
I3276552
sg20
I495633
sg21
I0
sg22
I4
sg23
I378082
sg24
I314288
sg25
I1101393
sg26
I117551
sg27
F0.12121212121212122
ssS'OVERDYKE JR JERE C'
p372
(dp373
g3
g5
sg4
g5
sg6
I0
sg7
I18834
sg8
I00
sg9
g5
sg10
S'jere.overdyke@enron.com'
p374
sg12
I135836
sg13
g5
sg14
g5
sg15
g5
sg16
g5
sg17
I176
sg18
g5
sg19
g5
sg20
I7307594
sg21
g5
sS'total_compensation_abs_abs_abs_abs_abs_abs_abs_abs_abs_abs_abs_abs_abs_abs_abs_abs_abs_abs_abs_abs_abs_abs_abs_abs_abs_abs_abs_abs_abs_abs_abs_abs_abs_abs_abs_abs_abs_abs_abs_abs_abs_abs_abs_abs_abs_abs_abs_abs_abs_abs_abs_abs_abs_abs_abs_abs_abs_abs_abs_abs_abs_abs_abs_abs_abs_abs_abs_abs_abs_abs_abs_abs_abs_abs_abs_abs_abs_abs_abs_abs_abs_abs_abs_abs_abs_abs_abs_abs_abs_abs_abs_abs_abs'
p375
I15114762
sg22
g5
sg23
I2041016
sg24
I94941
sg25
I249787
sg26
I5266578
sg27
I0
ssS'PEREIRA PAULO V. FERRAZ'
p376
(dp377
g3
g5
sg4
g5
sg6
I0
sg7
I27942
sg8
I00
sg9
I-101250
sg10
g5
sg12
g5
sg13
g5
sg14
g5
sg15
g5
sg16
g5
sg17
g5
sg18
I101250
sg19
g5
sg20
g5
sg21
g5
sg22
g5
sg23
g5
sg24
g5
sg25
I27942
sS'total_compensation_abs_abs_abs_abs_abs_abs_abs_abs_abs_abs_abs_abs_abs_abs_abs_abs_abs_abs_abs_abs_abs_abs_abs_abs_abs_abs_abs_abs_abs_abs_abs_abs_abs_abs_abs_abs_abs_abs_abs_abs_abs_abs_abs_abs_abs_abs_abs_abs_abs_abs_abs_abs_abs_abs_abs_abs_abs_abs_abs_abs_abs_abs_abs_abs_abs_abs_abs_abs_abs_abs_abs_abs_abs_abs_abs_abs_abs_abs_abs_abs_abs_abs_abs_abs_abs_abs_abs_abs_abs_abs_abs_abs_abs_abs'
p378
I258384
sg26
g5
sg27
I0
ssS'STABLER FRANK'
p379
(dp380
g3
g5
sg4
g5
sg6
I0
sg7
I16514
sg8
I00
sg9
g5
sg10
S'frank.stabler@enron.com'
p381
sg12
g5
sg13
g5
sg14
g5
sg15
g5
sg16
g5
sg17
I356071
sg18
g5
sg19
I500000
sg20
I511734
sg21
g5
sg22
g5
sg23
I511734
sg24
I239502
sS'total_compensation_abs_abs_abs_abs_abs_abs_abs_abs_abs_abs_abs_abs_abs_abs_abs_abs_abs_abs_abs_abs_abs_abs_abs_abs_abs_abs_abs_abs_abs_abs_abs_abs_abs_abs_abs_abs_abs_abs_abs_abs_abs_abs_abs_abs_abs_abs_abs_abs_abs_abs_abs_abs_abs_abs_abs_abs_abs_abs_abs_abs_abs_abs_abs_abs_abs_abs_abs_abs_abs_abs_abs_abs_abs_abs_abs_abs_abs_abs_abs_abs_abs_abs_abs_abs_abs_abs_abs_abs_abs_abs_abs_abs_abs_abs_abs'
p382
I3247642
sg25
I1112087
sg26
g5
sg27
I0
ssS'SKILLING JEFFREY K'
p383
(dp384
g3
I3627
sg4
g5
sg6
F0.0242624758753791
sg7
I29336
sg8
I01
sS'total_compensation_abs_abs_abs_abs_abs_abs_abs_abs_abs_abs_abs_abs_abs_abs_abs_abs_abs_abs_abs_abs_abs_abs_abs_abs_abs_abs_abs_abs_abs_abs_abs_abs_abs_abs_abs_abs_abs_abs_abs_abs_abs_abs_abs_abs_abs_abs_abs_abs_abs_abs_abs_abs_abs_abs_abs_abs_abs_abs_abs_abs_abs_abs_abs_abs_abs_abs_abs_abs_abs_abs_abs_abs_abs_abs_abs_abs_abs_abs_abs_abs_abs_abs_abs_abs_abs_abs_abs_abs_abs_abs_abs_abs_abs_abs_abs_abs'
p385
I69552776
sg9
g5
sg10
S'jeff.skilling@enron.com'
p386
sg12
I1920000
sg13
g5
sg14
I2042
sg15
g5
sg16
I108
sg17
I22122
sg18
g5
sg19
I5600000
sg20
I26093672
sg21
I88
sg22
I30
sg23
I6843672
sg24
I1111258
sg25
I8682716
sg26
I19250000
sg27
F0.2777777777777778
ssS'BLAKE JR. NORMAN P'
p387
(dp388
g3
g5
sg4
g5
sg6
I0
sg7
I1279
sg8
I00
sg9
I-113784
sg10
g5
sg12
g5
sg13
g5
sg14
g5
sg15
g5
sg16
g5
sg17
g5
sS'total_compensation_abs_abs_abs_abs_abs_abs_abs_abs_abs_abs_abs_abs_abs_abs_abs_abs_abs_abs_abs_abs_abs_abs_abs_abs_abs_abs_abs_abs_abs_abs_abs_abs_abs_abs_abs_abs_abs_abs_abs_abs_abs_abs_abs_abs_abs_abs_abs_abs_abs_abs_abs_abs_abs_abs_abs_abs_abs_abs_abs_abs_abs_abs_abs_abs_abs_abs_abs_abs_abs_abs_abs_abs_abs_abs_abs_abs_abs_abs_abs_abs_abs_abs_abs_abs_abs_abs_abs_abs_abs_abs_abs_abs_abs_abs_abs_abs_abs'
p389
I230126
sg18
I113784
sg19
g5
sg20
g5
sg21
g5
sg22
g5
sg23
g5
sg24
g5
sg25
I1279
sg26
g5
sg27
I0
ssS'SHERRICK JEFFREY B'
p390
(dp391
g3
I613
sg4
g5
sS'total_compensation_abs_abs_abs_abs_abs_abs_abs_abs_abs_abs_abs_abs_abs_abs_abs_abs_abs_abs_abs_abs_abs_abs_abs_abs_abs_abs_abs_abs_abs_abs_abs_abs_abs_abs_abs_abs_abs_abs_abs_abs_abs_abs_abs_abs_abs_abs_abs_abs_abs_abs_abs_abs_abs_abs_abs_abs_abs_abs_abs_abs_abs_abs_abs_abs_abs_abs_abs_abs_abs_abs_abs_abs_abs_abs_abs_abs_abs_abs_abs_abs_abs_abs_abs_abs_abs_abs_abs_abs_abs_abs_abs_abs_abs_abs_abs_abs_abs_abs'
p392
I3664936
sg6
F0.0636215334420881
sg7
g5
sg8
I00
sg9
g5
sg10
S'jeffrey.sherrick@enron.com'
p393
sg12
g5
sg13
g5
sg14
I583
sg15
g5
sg16
I25
sg17
g5
sg18
g5
sg19
g5
sg20
I1832468
sg21
I39
sg22
I18
sg23
I405999
sg24
g5
sg25
g5
sg26
I1426469
sg27
F0.72
ssS'PRENTICE JAMES'
p394
(dp395
g3
g5
sg4
I564348
sg6
I0
sg7
g5
sg8
I00
sg9
g5
sg10
S'james.prentice@enron.com'
p396
sg12
g5
sS'total_compensation_abs_abs_abs_abs_abs_abs_abs_abs_abs_abs_abs_abs_abs_abs_abs_abs_abs_abs_abs_abs_abs_abs_abs_abs_abs_abs_abs_abs_abs_abs_abs_abs_abs_abs_abs_abs_abs_abs_abs_abs_abs_abs_abs_abs_abs_abs_abs_abs_abs_abs_abs_abs_abs_abs_abs_abs_abs_abs_abs_abs_abs_abs_abs_abs_abs_abs_abs_abs_abs_abs_abs_abs_abs_abs_abs_abs_abs_abs_abs_abs_abs_abs_abs_abs_abs_abs_abs_abs_abs_abs_abs_abs_abs_abs_abs_abs_abs_abs_abs'
p397
I3318776
sg13
g5
sg14
g5
sg15
g5
sg16
g5
sg17
g5
sg18
g5
sg19
g5
sg20
I1095040
sg21
g5
sg22
g5
sg23
I208809
sg24
g5
sg25
I564348
sg26
I886231
sg27
I0
ssS'GRAY RODNEY'
p398
(dp399
g3
g5
sg4
I93585
sg6
I0
sg7
g5
sg8
I00
sg9
g5
sg10
g5
sg12
I365625
sS'total_compensation_abs_abs_abs_abs_abs_abs_abs_abs_abs_abs_abs_abs_abs_abs_abs_abs_abs_abs_abs_abs_abs_abs_abs_abs_abs_abs_abs_abs_abs_abs_abs_abs_abs_abs_abs_abs_abs_abs_abs_abs_abs_abs_abs_abs_abs_abs_abs_abs_abs_abs_abs_abs_abs_abs_abs_abs_abs_abs_abs_abs_abs_abs_abs_abs_abs_abs_abs_abs_abs_abs_abs_abs_abs_abs_abs_abs_abs_abs_abs_abs_abs_abs_abs_abs_abs_abs_abs_abs_abs_abs_abs_abs_abs_abs_abs_abs_abs_abs_abs_abs'
p400
I2293316
sg13
g5
sg14
g5
sg15
g5
sg16
g5
sg17
I680833
sg18
g5
sg19
g5
sg20
g5
sg21
g5
sg22
g5
sg23
g5
sg24
I6615
sg25
I1146658
sg26
g5
sg27
I0
ssS'PICKERING MARK R'
p401
(dp402
g3
I898
sg4
g5
sg6
F0.0077951002227171495
sg7
I31653
sg8
I00
sS'total_compensation_abs_abs_abs_abs_abs_abs_abs_abs_abs_abs_abs_abs_abs_abs_abs_abs_abs_abs_abs_abs_abs_abs_abs_abs_abs_abs_abs_abs_abs_abs_abs_abs_abs_abs_abs_abs_abs_abs_abs_abs_abs_abs_abs_abs_abs_abs_abs_abs_abs_abs_abs_abs_abs_abs_abs_abs_abs_abs_abs_abs_abs_abs_abs_abs_abs_abs_abs_abs_abs_abs_abs_abs_abs_abs_abs_abs_abs_abs_abs_abs_abs_abs_abs_abs_abs_abs_abs_abs_abs_abs_abs_abs_abs_abs_abs_abs_abs_abs_abs_abs_abs'
p403
I2830976
sg9
g5
sg10
S'mark.pickering@enron.com'
p404
sg12
g5
sg13
g5
sg14
I728
sg15
I400000
sg16
I67
sg17
g5
sg18
g5
sg19
I300000
sg20
I28798
sg21
I7
sg22
I0
sg23
g5
sg24
I655037
sg25
I1386690
sg26
I28798
sg27
F0.0
ssS'THE TRAVEL AGENCY IN THE PARK'
p405
(dp406
g3
g5
sg4
g5
sg6
I0
sg7
g5
sg8
I00
sg9
g5
sg10
g5
sg12
g5
sg13
g5
sS'total_compensation_abs_abs_abs_abs_abs_abs_abs_abs_abs_abs_abs_abs_abs_abs_abs_abs_abs_abs_abs_abs_abs_abs_abs_abs_abs_abs_abs_abs_abs_abs_abs_abs_abs_abs_abs_abs_abs_abs_abs_abs_abs_abs_abs_abs_abs_abs_abs_abs_abs_abs_abs_abs_abs_abs_abs_abs_abs_abs_abs_abs_abs_abs_abs_abs_abs_abs_abs_abs_abs_abs_abs_abs_abs_abs_abs_abs_abs_abs_abs_abs_abs_abs_abs_abs_abs_abs_abs_abs_abs_abs_abs_abs_abs_abs_abs_abs_abs_abs_abs_abs_abs_abs'
p407
I724192
sg14
g5
sg15
g5
sg16
g5
sg17
I362096
sg18
g5
sg19
g5
sg20
g5
sg21
g5
sg22
g5
sg23
g5
sg24
g5
sg25
I362096
sg26
g5
sg27
I0
ssS'NOLES JAMES L'
p408
(dp409
S'total_compensation_abs_abs_abs_abs_abs_abs_abs_abs_abs_abs_abs_abs_abs_abs_abs_abs_abs_abs_abs_abs_abs_abs_abs_abs_abs_abs_abs_abs_abs_abs_abs_abs_abs_abs_abs_abs_abs_abs_abs_abs_abs_abs_abs_abs_abs_abs_abs_abs_abs_abs_abs_abs_abs_abs_abs_abs_abs_abs_abs_abs_abs_abs_abs_abs_abs_abs_abs_abs_abs_abs_abs_abs_abs_abs_abs_abs_abs_abs_abs_abs_abs_abs_abs_abs_abs_abs_abs_abs_abs_abs_abs_abs_abs_abs_abs_abs_abs_abs_abs_abs_abs_abs_abs'
p410
I2475324
sg3
g5
sg4
I774401
sg6
I0
sg7
g5
sg8
I00
sg9
g5
sg10
g5
sg12
g5
sg13
I-94556
sg14
g5
sg15
g5
sg16
g5
sg17
g5
sg18
g5
sg19
g5
sg20
I368705
sg21
g5
sg22
g5
sg23
I463261
sg24
g5
sg25
I774401
sg26
g5
sg27
I0
ssS'KEAN STEVEN J'
p411
(dp412
g3
I12754
sg4
g5
sg6
F0.010976948408342482
sg7
I41953
sg8
I00
sg9
g5
sg10
S'steven.kean@enron.com'
p413
sg12
I300000
sS'total_compensation_abs_abs_abs_abs_abs_abs_abs_abs_abs_abs_abs_abs_abs_abs_abs_abs_abs_abs_abs_abs_abs_abs_abs_abs_abs_abs_abs_abs_abs_abs_abs_abs_abs_abs_abs_abs_abs_abs_abs_abs_abs_abs_abs_abs_abs_abs_abs_abs_abs_abs_abs_abs_abs_abs_abs_abs_abs_abs_abs_abs_abs_abs_abs_abs_abs_abs_abs_abs_abs_abs_abs_abs_abs_abs_abs_abs_abs_abs_abs_abs_abs_abs_abs_abs_abs_abs_abs_abs_abs_abs_abs_abs_abs_abs_abs_abs_abs_abs_abs_abs_abs_abs_abs_abs'
p414
I15802328
sg13
g5
sg14
I3639
sg15
g5
sg16
I6759
sg17
I1231
sg18
g5
sg19
I1000000
sg20
I6153642
sg21
I140
sg22
I387
sg23
I4131594
sg24
I404338
sg25
I1747522
sg26
I2022048
sg27
F0.05725699067909454
ssS'FOWLER PEGGY'
p415
(dp416
g3
I517
sg4
g5
sg6
F0.0
sS'total_compensation_abs_abs_abs_abs_abs_abs_abs_abs_abs_abs_abs_abs_abs_abs_abs_abs_abs_abs_abs_abs_abs_abs_abs_abs_abs_abs_abs_abs_abs_abs_abs_abs_abs_abs_abs_abs_abs_abs_abs_abs_abs_abs_abs_abs_abs_abs_abs_abs_abs_abs_abs_abs_abs_abs_abs_abs_abs_abs_abs_abs_abs_abs_abs_abs_abs_abs_abs_abs_abs_abs_abs_abs_abs_abs_abs_abs_abs_abs_abs_abs_abs_abs_abs_abs_abs_abs_abs_abs_abs_abs_abs_abs_abs_abs_abs_abs_abs_abs_abs_abs_abs_abs_abs_abs_abs'
p417
I3769496
sg7
g5
sg8
I00
sg9
g5
sg10
S'kulvinder.fowler@enron.com'
p418
sg12
g5
sg13
g5
sg14
I10
sg15
g5
sg16
I36
sg17
g5
sg18
g5
sg19
g5
sg20
I1884748
sg21
I0
sg22
I0
sg23
I560170
sg24
g5
sg25
g5
sg26
I1324578
sg27
F0.0
ssS'WASAFF GEORGE'
p419
(dp420
g3
I400
sg4
I831299
sg6
F0.055
sg7
g5
sg8
I00
sg9
I-583325
sg10
S'george.wasaff@enron.com'
p421
sg12
I200000
sg13
g5
sg14
I337
sg15
g5
sg16
I30
sg17
I1425
sg18
g5
sg19
I325000
sg20
I2056427
sg21
I22
sg22
I7
sg23
I388167
sg24
I259996
sg25
I1034395
sg26
I1668260
sg27
F0.23333333333333334
sS'total_compensation_abs_abs_abs_abs_abs_abs_abs_abs_abs_abs_abs_abs_abs_abs_abs_abs_abs_abs_abs_abs_abs_abs_abs_abs_abs_abs_abs_abs_abs_abs_abs_abs_abs_abs_abs_abs_abs_abs_abs_abs_abs_abs_abs_abs_abs_abs_abs_abs_abs_abs_abs_abs_abs_abs_abs_abs_abs_abs_abs_abs_abs_abs_abs_abs_abs_abs_abs_abs_abs_abs_abs_abs_abs_abs_abs_abs_abs_abs_abs_abs_abs_abs_abs_abs_abs_abs_abs_abs_abs_abs_abs_abs_abs_abs_abs_abs_abs_abs_abs_abs_abs_abs_abs_abs_abs_abs'
p422
I7348294
ssS'WHITE JR THOMAS E'
p423
(dp424
g3
g5
sg4
g5
sg6
I0
sg7
I81353
sg8
I00
sg9
g5
sg10
S'thomas.white@enron.com'
p425
sg12
g5
sg13
g5
sg14
g5
sg15
g5
sg16
g5
sg17
I1085463
sS'total_compensation_abs_abs_abs_abs_abs_abs_abs_abs_abs_abs_abs_abs_abs_abs_abs_abs_abs_abs_abs_abs_abs_abs_abs_abs_abs_abs_abs_abs_abs_abs_abs_abs_abs_abs_abs_abs_abs_abs_abs_abs_abs_abs_abs_abs_abs_abs_abs_abs_abs_abs_abs_abs_abs_abs_abs_abs_abs_abs_abs_abs_abs_abs_abs_abs_abs_abs_abs_abs_abs_abs_abs_abs_abs_abs_abs_abs_abs_abs_abs_abs_abs_abs_abs_abs_abs_abs_abs_abs_abs_abs_abs_abs_abs_abs_abs_abs_abs_abs_abs_abs_abs_abs_abs_abs_abs_abs_abs'
p426
I34156964
sg18
g5
sg19
I450000
sg20
I15144123
sg21
g5
sg22
g5
sg23
I13847074
sg24
I317543
sg25
I1934359
sg26
I1297049
sg27
I0
ssS'CHRISTODOULOU DIOMEDES'
p427
(dp428
g3
g5
sg4
g5
sg6
I0
sg7
g5
sg8
I00
sg9
g5
sg10
S'diomedes.christodoulou@enron.com'
p429
sg12
g5
sS'total_compensation_abs_abs_abs_abs_abs_abs_abs_abs_abs_abs_abs_abs_abs_abs_abs_abs_abs_abs_abs_abs_abs_abs_abs_abs_abs_abs_abs_abs_abs_abs_abs_abs_abs_abs_abs_abs_abs_abs_abs_abs_abs_abs_abs_abs_abs_abs_abs_abs_abs_abs_abs_abs_abs_abs_abs_abs_abs_abs_abs_abs_abs_abs_abs_abs_abs_abs_abs_abs_abs_abs_abs_abs_abs_abs_abs_abs_abs_abs_abs_abs_abs_abs_abs_abs_abs_abs_abs_abs_abs_abs_abs_abs_abs_abs_abs_abs_abs_abs_abs_abs_abs_abs_abs_abs_abs_abs_abs_abs'
p430
I12155770
sg13
g5
sg14
g5
sg15
g5
sg16
g5
sg17
g5
sg18
g5
sg19
g5
sg20
I6077885
sg21
g5
sg22
g5
sg23
I950730
sg24
g5
sg25
g5
sg26
I5127155
sg27
I0
ssS'ALLEN PHILLIP K'
p431
(dp432
g3
I2902
sg4
I2869717
sg6
F0.016195727084769126
sg7
I13868
sg8
I00
sg9
I-3081055
sg10
S'phillip.allen@enron.com'
p433
sg12
I304805
sg13
I-126027
sg14
I1407
sg15
g5
sg16
I2195
sg17
I152
sS'total_compensation_abs_abs_abs_abs_abs_abs_abs_abs_abs_abs_abs_abs_abs_abs_abs_abs_abs_abs_abs_abs_abs_abs_abs_abs_abs_abs_abs_abs_abs_abs_abs_abs_abs_abs_abs_abs_abs_abs_abs_abs_abs_abs_abs_abs_abs_abs_abs_abs_abs_abs_abs_abs_abs_abs_abs_abs_abs_abs_abs_abs_abs_abs_abs_abs_abs_abs_abs_abs_abs_abs_abs_abs_abs_abs_abs_abs_abs_abs_abs_abs_abs_abs_abs_abs_abs_abs_abs_abs_abs_abs_abs_abs_abs_abs_abs_abs_abs_abs_abs_abs_abs_abs_abs_abs_abs_abs_abs_abs_abs'
p434
I18842130
sg18
g5
sg19
I4175000
sg20
I1729541
sg21
I47
sg22
I65
sg23
I126027
sg24
I201955
sg25
I4484442
sg26
I1729541
sg27
F0.029612756264236904
ssS'SHARP VICTORIA T'
p435
(dp436
g3
I3136
sg4
I187469
sg6
F0.007653061224489796
sg7
I116337
sg8
I00
sg9
g5
sg10
S'vicki.sharp@enron.com'
p437
sg12
I422158
sg13
g5
sg14
I2477
sg15
g5
sg16
I136
sg17
I2401
sg18
g5
sg19
I600000
sg20
I494136
sg21
I24
sg22
I6
sg23
I213063
sS'total_compensation_abs_abs_abs_abs_abs_abs_abs_abs_abs_abs_abs_abs_abs_abs_abs_abs_abs_abs_abs_abs_abs_abs_abs_abs_abs_abs_abs_abs_abs_abs_abs_abs_abs_abs_abs_abs_abs_abs_abs_abs_abs_abs_abs_abs_abs_abs_abs_abs_abs_abs_abs_abs_abs_abs_abs_abs_abs_abs_abs_abs_abs_abs_abs_abs_abs_abs_abs_abs_abs_abs_abs_abs_abs_abs_abs_abs_abs_abs_abs_abs_abs_abs_abs_abs_abs_abs_abs_abs_abs_abs_abs_abs_abs_abs_abs_abs_abs_abs_abs_abs_abs_abs_abs_abs_abs_abs_abs_abs_abs_abs'
p438
I4141294
sg24
I248146
sg25
I1576511
sg26
I281073
sg27
F0.04411764705882353
ssS'JAEDICKE ROBERT'
p439
(dp440
g3
g5
sg4
g5
sg6
I0
sg7
g5
sg8
I00
sg9
I-25000
sg10
g5
sg12
g5
sg13
I-44093
sg14
g5
sS'total_compensation_abs_abs_abs_abs_abs_abs_abs_abs_abs_abs_abs_abs_abs_abs_abs_abs_abs_abs_abs_abs_abs_abs_abs_abs_abs_abs_abs_abs_abs_abs_abs_abs_abs_abs_abs_abs_abs_abs_abs_abs_abs_abs_abs_abs_abs_abs_abs_abs_abs_abs_abs_abs_abs_abs_abs_abs_abs_abs_abs_abs_abs_abs_abs_abs_abs_abs_abs_abs_abs_abs_abs_abs_abs_abs_abs_abs_abs_abs_abs_abs_abs_abs_abs_abs_abs_abs_abs_abs_abs_abs_abs_abs_abs_abs_abs_abs_abs_abs_abs_abs_abs_abs_abs_abs_abs_abs_abs_abs_abs_abs_abs'
p441
I1169186
sg15
g5
sg16
g5
sg17
g5
sg18
I108750
sg19
g5
sg20
I431750
sg21
g5
sg22
g5
sg23
I44093
sg24
g5
sg25
I83750
sg26
I431750
sg27
I0
ssS'WINOKUR JR. HERBERT S'
p442
(dp443
g3
g5
sg4
g5
sg6
I0
sg7
I1413
sg8
I00
sg9
I-25000
sg10
g5
sg12
g5
sg13
g5
sg14
g5
sg15
g5
sg16
g5
sg17
g5
sS'total_compensation_abs_abs_abs_abs_abs_abs_abs_abs_abs_abs_abs_abs_abs_abs_abs_abs_abs_abs_abs_abs_abs_abs_abs_abs_abs_abs_abs_abs_abs_abs_abs_abs_abs_abs_abs_abs_abs_abs_abs_abs_abs_abs_abs_abs_abs_abs_abs_abs_abs_abs_abs_abs_abs_abs_abs_abs_abs_abs_abs_abs_abs_abs_abs_abs_abs_abs_abs_abs_abs_abs_abs_abs_abs_abs_abs_abs_abs_abs_abs_abs_abs_abs_abs_abs_abs_abs_abs_abs_abs_abs_abs_abs_abs_abs_abs_abs_abs_abs_abs_abs_abs_abs_abs_abs_abs_abs_abs_abs_abs_abs_abs_abs'
p444
I219984
sg18
I108579
sg19
g5
sg20
g5
sg21
g5
sg22
g5
sg23
g5
sg24
g5
sg25
I84992
sg26
g5
sg27
I0
ssS'BROWN MICHAEL'
p445
(dp446
g3
I1486
sg4
g5
sg6
F0.008748317631224764
sg7
I49288
sg8
I00
sg9
g5
sg10
S'michael.brown@enron.com'
p447
sg12
g5
sS'total_compensation_abs_abs_abs_abs_abs_abs_abs_abs_abs_abs_abs_abs_abs_abs_abs_abs_abs_abs_abs_abs_abs_abs_abs_abs_abs_abs_abs_abs_abs_abs_abs_abs_abs_abs_abs_abs_abs_abs_abs_abs_abs_abs_abs_abs_abs_abs_abs_abs_abs_abs_abs_abs_abs_abs_abs_abs_abs_abs_abs_abs_abs_abs_abs_abs_abs_abs_abs_abs_abs_abs_abs_abs_abs_abs_abs_abs_abs_abs_abs_abs_abs_abs_abs_abs_abs_abs_abs_abs_abs_abs_abs_abs_abs_abs_abs_abs_abs_abs_abs_abs_abs_abs_abs_abs_abs_abs_abs_abs_abs_abs_abs_abs_abs'
p448
I98576
sg13
g5
sg14
I761
sg15
g5
sg16
I41
sg17
g5
sg18
g5
sg19
g5
sg20
g5
sg21
I13
sg22
I1
sg23
g5
sg24
g5
sg25
I49288
sg26
g5
sg27
F0.024390243902439025
ssS'BADUM JAMES P'
p449
(dp450
g3
g5
sg4
I178980
sg6
I0
sg7
I3486
sg8
I00
sg9
g5
sg10
g5
sg12
g5
sS'total_compensation_abs_abs_abs_abs_abs_abs_abs_abs_abs_abs_abs_abs_abs_abs_abs_abs_abs_abs_abs_abs_abs_abs_abs_abs_abs_abs_abs_abs_abs_abs_abs_abs_abs_abs_abs_abs_abs_abs_abs_abs_abs_abs_abs_abs_abs_abs_abs_abs_abs_abs_abs_abs_abs_abs_abs_abs_abs_abs_abs_abs_abs_abs_abs_abs_abs_abs_abs_abs_abs_abs_abs_abs_abs_abs_abs_abs_abs_abs_abs_abs_abs_abs_abs_abs_abs_abs_abs_abs_abs_abs_abs_abs_abs_abs_abs_abs_abs_abs_abs_abs_abs_abs_abs_abs_abs_abs_abs_abs_abs_abs_abs_abs_abs_abs'
p451
I880566
sg13
g5
sg14
g5
sg15
g5
sg16
g5
sg17
g5
sg18
g5
sg19
g5
sg20
I257817
sg21
g5
sg22
g5
sg23
g5
sg24
g5
sg25
I182466
sg26
I257817
sg27
I0
ssS'HUGHES JAMES A'
p452
(dp453
g3
I719
sg4
g5
sg6
F0.048678720445062586
sS'total_compensation_abs_abs_abs_abs_abs_abs_abs_abs_abs_abs_abs_abs_abs_abs_abs_abs_abs_abs_abs_abs_abs_abs_abs_abs_abs_abs_abs_abs_abs_abs_abs_abs_abs_abs_abs_abs_abs_abs_abs_abs_abs_abs_abs_abs_abs_abs_abs_abs_abs_abs_abs_abs_abs_abs_abs_abs_abs_abs_abs_abs_abs_abs_abs_abs_abs_abs_abs_abs_abs_abs_abs_abs_abs_abs_abs_abs_abs_abs_abs_abs_abs_abs_abs_abs_abs_abs_abs_abs_abs_abs_abs_abs_abs_abs_abs_abs_abs_abs_abs_abs_abs_abs_abs_abs_abs_abs_abs_abs_abs_abs_abs_abs_abs_abs_abs'
p454
I2236788
sg7
g5
sg8
I00
sg9
g5
sg10
S'james.hughes@enron.com'
p455
sg12
g5
sg13
g5
sg14
I589
sg15
g5
sg16
I34
sg17
g5
sg18
g5
sg19
g5
sg20
I1118394
sg21
I35
sg22
I5
sg23
I363428
sg24
g5
sg25
g5
sg26
I754966
sg27
F0.14705882352941177
ssS'REYNOLDS LAWRENCE'
p456
(dp457
g3
g5
sg4
I51365
sg6
I0
sg7
I8409
sg8
I00
sg9
I-200000
sg10
g5
sg12
I156250
sg13
I-140264
sg14
g5
sg15
g5
sg16
g5
sg17
I202052
sg18
g5
sg19
I100000
sg20
I4221891
sg21
g5
sS'total_compensation_abs_abs_abs_abs_abs_abs_abs_abs_abs_abs_abs_abs_abs_abs_abs_abs_abs_abs_abs_abs_abs_abs_abs_abs_abs_abs_abs_abs_abs_abs_abs_abs_abs_abs_abs_abs_abs_abs_abs_abs_abs_abs_abs_abs_abs_abs_abs_abs_abs_abs_abs_abs_abs_abs_abs_abs_abs_abs_abs_abs_abs_abs_abs_abs_abs_abs_abs_abs_abs_abs_abs_abs_abs_abs_abs_abs_abs_abs_abs_abs_abs_abs_abs_abs_abs_abs_abs_abs_abs_abs_abs_abs_abs_abs_abs_abs_abs_abs_abs_abs_abs_abs_abs_abs_abs_abs_abs_abs_abs_abs_abs_abs_abs_abs_abs_abs'
p458
I9913260
sg22
g5
sg23
I201483
sg24
I76399
sg25
I394475
sg26
I4160672
sg27
I0
ssS'DIMICHELE RICHARD G'
p459
(dp460
g3
g5
sg4
g5
sg6
I0
sg7
I35812
sg8
I00
sg9
g5
sg10
S'richard.dimichele@enron.com'
p461
sg12
I694862
sS'total_compensation_abs_abs_abs_abs_abs_abs_abs_abs_abs_abs_abs_abs_abs_abs_abs_abs_abs_abs_abs_abs_abs_abs_abs_abs_abs_abs_abs_abs_abs_abs_abs_abs_abs_abs_abs_abs_abs_abs_abs_abs_abs_abs_abs_abs_abs_abs_abs_abs_abs_abs_abs_abs_abs_abs_abs_abs_abs_abs_abs_abs_abs_abs_abs_abs_abs_abs_abs_abs_abs_abs_abs_abs_abs_abs_abs_abs_abs_abs_abs_abs_abs_abs_abs_abs_abs_abs_abs_abs_abs_abs_abs_abs_abs_abs_abs_abs_abs_abs_abs_abs_abs_abs_abs_abs_abs_abs_abs_abs_abs_abs_abs_abs_abs_abs_abs_abs_abs'
p462
I21371866
sg13
g5
sg14
g5
sg15
g5
sg16
g5
sg17
I374689
sg18
g5
sg19
I1000000
sg20
I8317782
sg21
g5
sg22
g5
sg23
I126027
sg24
I262788
sg25
I2368151
sg26
I8191755
sg27
I0
ssS'BHATNAGAR SANJAY'
p463
(dp464
g3
I523
sg4
g5
sg6
F0.0
sS'total_compensation_abs_abs_abs_abs_abs_abs_abs_abs_abs_abs_abs_abs_abs_abs_abs_abs_abs_abs_abs_abs_abs_abs_abs_abs_abs_abs_abs_abs_abs_abs_abs_abs_abs_abs_abs_abs_abs_abs_abs_abs_abs_abs_abs_abs_abs_abs_abs_abs_abs_abs_abs_abs_abs_abs_abs_abs_abs_abs_abs_abs_abs_abs_abs_abs_abs_abs_abs_abs_abs_abs_abs_abs_abs_abs_abs_abs_abs_abs_abs_abs_abs_abs_abs_abs_abs_abs_abs_abs_abs_abs_abs_abs_abs_abs_abs_abs_abs_abs_abs_abs_abs_abs_abs_abs_abs_abs_abs_abs_abs_abs_abs_abs_abs_abs_abs_abs_abs_abs'
p465
I36397288
sg7
g5
sg8
I00
sg9
g5
sg10
S'sanjay.bhatnagar@enron.com'
p466
sg12
g5
sg13
I15456290
sg14
I463
sg15
g5
sg16
I29
sg17
I137864
sg18
I137864
sg19
g5
sS'total_stock_value'
p467
S'NaN'
p468
sg21
I0
sg22
I1
sg23
I-2604490
sg24
g5
sg25
I15456290
sg26
I2604490
sg27
F0.034482758620689655
ssS'CARTER REBECCA C'
p469
(dp470
g3
I312
sg4
g5
sg6
F0.09294871794871795
sg7
g5
sg8
I00
sg9
I-159792
sg10
S'rebecca.carter@enron.com'
p471
sg12
I75000
sS'total_compensation_abs_abs_abs_abs_abs_abs_abs_abs_abs_abs_abs_abs_abs_abs_abs_abs_abs_abs_abs_abs_abs_abs_abs_abs_abs_abs_abs_abs_abs_abs_abs_abs_abs_abs_abs_abs_abs_abs_abs_abs_abs_abs_abs_abs_abs_abs_abs_abs_abs_abs_abs_abs_abs_abs_abs_abs_abs_abs_abs_abs_abs_abs_abs_abs_abs_abs_abs_abs_abs_abs_abs_abs_abs_abs_abs_abs_abs_abs_abs_abs_abs_abs_abs_abs_abs_abs_abs_abs_abs_abs_abs_abs_abs_abs_abs_abs_abs_abs_abs_abs_abs_abs_abs_abs_abs_abs_abs_abs_abs_abs_abs_abs_abs_abs_abs_abs_abs_abs_abs'
p472
I1889300
sg13
I-307301
sg14
I196
sg15
g5
sg16
I15
sg17
I540
sg18
g5
sg19
I300000
sg20
g5
sg21
I29
sg22
I7
sg23
I307301
sg24
I261809
sg25
I477557
sg26
g5
sg27
F0.4666666666666667
ssS'BUCHANAN HAROLD G'
p473
(dp474
g3
I1088
sg4
g5
sg6
F0.0
sS'total_compensation_abs_abs_abs_abs_abs_abs_abs_abs_abs_abs_abs_abs_abs_abs_abs_abs_abs_abs_abs_abs_abs_abs_abs_abs_abs_abs_abs_abs_abs_abs_abs_abs_abs_abs_abs_abs_abs_abs_abs_abs_abs_abs_abs_abs_abs_abs_abs_abs_abs_abs_abs_abs_abs_abs_abs_abs_abs_abs_abs_abs_abs_abs_abs_abs_abs_abs_abs_abs_abs_abs_abs_abs_abs_abs_abs_abs_abs_abs_abs_abs_abs_abs_abs_abs_abs_abs_abs_abs_abs_abs_abs_abs_abs_abs_abs_abs_abs_abs_abs_abs_abs_abs_abs_abs_abs_abs_abs_abs_abs_abs_abs_abs_abs_abs_abs_abs_abs_abs_abs_abs'
p475
I4138284
sg7
I600
sg8
I00
sg9
g5
sg10
S'john.buchanan@enron.com'
p476
sg12
I304805
sg13
g5
sg14
I23
sg15
g5
sg16
I125
sg17
I1215
sg18
g5
sg19
I500000
sg20
I1014505
sg21
I0
sg22
I0
sg23
I189041
sg24
I248017
sg25
I1054637
sg26
I825464
sg27
F0.0
ssS'YEAP SOON'
p477
(dp478
g3
g5
sg4
g5
sg6
I0
sg7
I55097
sg8
I00
sg9
g5
sg10
g5
sg12
g5
sg13
g5
sS'total_compensation_abs_abs_abs_abs_abs_abs_abs_abs_abs_abs_abs_abs_abs_abs_abs_abs_abs_abs_abs_abs_abs_abs_abs_abs_abs_abs_abs_abs_abs_abs_abs_abs_abs_abs_abs_abs_abs_abs_abs_abs_abs_abs_abs_abs_abs_abs_abs_abs_abs_abs_abs_abs_abs_abs_abs_abs_abs_abs_abs_abs_abs_abs_abs_abs_abs_abs_abs_abs_abs_abs_abs_abs_abs_abs_abs_abs_abs_abs_abs_abs_abs_abs_abs_abs_abs_abs_abs_abs_abs_abs_abs_abs_abs_abs_abs_abs_abs_abs_abs_abs_abs_abs_abs_abs_abs_abs_abs_abs_abs_abs_abs_abs_abs_abs_abs_abs_abs_abs_abs_abs_abs'
p479
I495710
sg14
g5
sg15
g5
sg16
g5
sg17
g5
sg18
g5
sg19
g5
sg20
I192758
sg21
g5
sg22
g5
sg23
g5
sg24
g5
sg25
I55097
sg26
I192758
sg27
I0
ssS'MURRAY JULIA H'
p480
(dp481
g3
I2192
sg4
g5
sg6
F0.005018248175182482
sg7
I57580
sg8
I00
sg9
g5
sg10
S'julia.murray@enron.com'
p482
sg12
I125000
sg13
g5
sg14
I395
sg15
g5
sg16
I45
sg17
I330
sS'total_compensation_abs_abs_abs_abs_abs_abs_abs_abs_abs_abs_abs_abs_abs_abs_abs_abs_abs_abs_abs_abs_abs_abs_abs_abs_abs_abs_abs_abs_abs_abs_abs_abs_abs_abs_abs_abs_abs_abs_abs_abs_abs_abs_abs_abs_abs_abs_abs_abs_abs_abs_abs_abs_abs_abs_abs_abs_abs_abs_abs_abs_abs_abs_abs_abs_abs_abs_abs_abs_abs_abs_abs_abs_abs_abs_abs_abs_abs_abs_abs_abs_abs_abs_abs_abs_abs_abs_abs_abs_abs_abs_abs_abs_abs_abs_abs_abs_abs_abs_abs_abs_abs_abs_abs_abs_abs_abs_abs_abs_abs_abs_abs_abs_abs_abs_abs_abs_abs_abs_abs_abs_abs_abs'
p483
I2819310
sg18
g5
sg19
I400000
sg20
I597461
sg21
I11
sg22
I2
sg23
I196983
sg24
I229284
sg25
I812194
sg26
I400478
sg27
F0.044444444444444446
ssS'GARLAND C KEVIN'
p484
(dp485
g3
I209
sg4
g5
sg6
F0.04784688995215311
sg7
I48405
sg8
I00
sg9
g5
sg10
S'kevin.garland@enron.com'
p486
sg12
I375304
sg13
g5
sg14
I178
sg15
g5
sg16
I44
sg17
I60814
sg18
g5
sg19
I850000
sg20
I896153
sg21
I10
sg22
I27
sS'total_compensation_abs_abs_abs_abs_abs_abs_abs_abs_abs_abs_abs_abs_abs_abs_abs_abs_abs_abs_abs_abs_abs_abs_abs_abs_abs_abs_abs_abs_abs_abs_abs_abs_abs_abs_abs_abs_abs_abs_abs_abs_abs_abs_abs_abs_abs_abs_abs_abs_abs_abs_abs_abs_abs_abs_abs_abs_abs_abs_abs_abs_abs_abs_abs_abs_abs_abs_abs_abs_abs_abs_abs_abs_abs_abs_abs_abs_abs_abs_abs_abs_abs_abs_abs_abs_abs_abs_abs_abs_abs_abs_abs_abs_abs_abs_abs_abs_abs_abs_abs_abs_abs_abs_abs_abs_abs_abs_abs_abs_abs_abs_abs_abs_abs_abs_abs_abs_abs_abs_abs_abs_abs_abs_abs'
p487
I4925244
sg23
I259907
sg24
I231946
sg25
I1566469
sg26
I636246
sg27
F0.6136363636363636
ssS'DODSON KEITH'
p488
(dp489
g3
I176
sg4
g5
sg6
F0.056818181818181816
sg7
I28164
sg8
I00
sg9
g5
sg10
S'keith.dodson@enron.com'
p490
sg12
g5
sg13
g5
sg14
I114
sg15
g5
sg16
I14
sg17
I774
sg18
g5
sS'total_compensation_abs_abs_abs_abs_abs_abs_abs_abs_abs_abs_abs_abs_abs_abs_abs_abs_abs_abs_abs_abs_abs_abs_abs_abs_abs_abs_abs_abs_abs_abs_abs_abs_abs_abs_abs_abs_abs_abs_abs_abs_abs_abs_abs_abs_abs_abs_abs_abs_abs_abs_abs_abs_abs_abs_abs_abs_abs_abs_abs_abs_abs_abs_abs_abs_abs_abs_abs_abs_abs_abs_abs_abs_abs_abs_abs_abs_abs_abs_abs_abs_abs_abs_abs_abs_abs_abs_abs_abs_abs_abs_abs_abs_abs_abs_abs_abs_abs_abs_abs_abs_abs_abs_abs_abs_abs_abs_abs_abs_abs_abs_abs_abs_abs_abs_abs_abs_abs_abs_abs_abs_abs_abs_abs_abs'
p491
I639882
sg19
I70000
sg20
g5
sg21
I10
sg22
I3
sg23
g5
sg24
I221003
sg25
I319941
sg26
g5
sg27
F0.21428571428571427
ssS'YEAGER F SCOTT'
p492
(dp493
g3
g5
sg4
g5
sg6
I0
sg7
I53947
sS'total_compensation_abs_abs_abs_abs_abs_abs_abs_abs_abs_abs_abs_abs_abs_abs_abs_abs_abs_abs_abs_abs_abs_abs_abs_abs_abs_abs_abs_abs_abs_abs_abs_abs_abs_abs_abs_abs_abs_abs_abs_abs_abs_abs_abs_abs_abs_abs_abs_abs_abs_abs_abs_abs_abs_abs_abs_abs_abs_abs_abs_abs_abs_abs_abs_abs_abs_abs_abs_abs_abs_abs_abs_abs_abs_abs_abs_abs_abs_abs_abs_abs_abs_abs_abs_abs_abs_abs_abs_abs_abs_abs_abs_abs_abs_abs_abs_abs_abs_abs_abs_abs_abs_abs_abs_abs_abs_abs_abs_abs_abs_abs_abs_abs_abs_abs_abs_abs_abs_abs_abs_abs_abs_abs_abs_abs_abs'
p494
I24490116
sg8
I01
sg9
g5
sg10
S'scott.yeager@enron.com'
p495
sg12
g5
sg13
g5
sg14
g5
sg15
g5
sg16
g5
sg17
I147950
sg18
g5
sg19
g5
sg20
I11884758
sg21
g5
sg22
g5
sg23
I3576206
sg24
I158403
sg25
I360300
sg26
I8308552
sg27
I0
ssS'HIRKO JOSEPH'
p496
(dp497
g3
g5
sg4
I10259
sg6
I0
sg7
I77978
sg8
I01
sg9
g5
sg10
S'joe.hirko@enron.com'
p498
sg12
g5
sg13
g5
sg14
g5
sg15
g5
sg16
g5
sg17
I2856
sg18
g5
sg19
g5
sg20
I30766064
sg21
g5
sg22
g5
sg23
g5
sg24
g5
sg25
I91093
sg26
I30766064
sg27
I0
sS'total_compensation_abs_abs_abs_abs_abs_abs_abs_abs_abs_abs_abs_abs_abs_abs_abs_abs_abs_abs_abs_abs_abs_abs_abs_abs_abs_abs_abs_abs_abs_abs_abs_abs_abs_abs_abs_abs_abs_abs_abs_abs_abs_abs_abs_abs_abs_abs_abs_abs_abs_abs_abs_abs_abs_abs_abs_abs_abs_abs_abs_abs_abs_abs_abs_abs_abs_abs_abs_abs_abs_abs_abs_abs_abs_abs_abs_abs_abs_abs_abs_abs_abs_abs_abs_abs_abs_abs_abs_abs_abs_abs_abs_abs_abs_abs_abs_abs_abs_abs_abs_abs_abs_abs_abs_abs_abs_abs_abs_abs_abs_abs_abs_abs_abs_abs_abs_abs_abs_abs_abs_abs_abs_abs_abs_abs_abs_abs'
p499
I61714314
ssS'DIETRICH JANET R'
p500
(dp501
g3
I2572
sg4
g5
sg6
F0.11858475894245724
sg7
I3475
sS'total_compensation_abs_abs_abs_abs_abs_abs_abs_abs_abs_abs_abs_abs_abs_abs_abs_abs_abs_abs_abs_abs_abs_abs_abs_abs_abs_abs_abs_abs_abs_abs_abs_abs_abs_abs_abs_abs_abs_abs_abs_abs_abs_abs_abs_abs_abs_abs_abs_abs_abs_abs_abs_abs_abs_abs_abs_abs_abs_abs_abs_abs_abs_abs_abs_abs_abs_abs_abs_abs_abs_abs_abs_abs_abs_abs_abs_abs_abs_abs_abs_abs_abs_abs_abs_abs_abs_abs_abs_abs_abs_abs_abs_abs_abs_abs_abs_abs_abs_abs_abs_abs_abs_abs_abs_abs_abs_abs_abs_abs_abs_abs_abs_abs_abs_abs_abs_abs_abs_abs_abs_abs_abs_abs_abs_abs_abs_abs_abs'
p502
I6551102
sg8
I00
sg9
g5
sg10
S'janet.dietrich@enron.com'
p503
sg12
I556416
sg13
g5
sg14
I1902
sg15
g5
sg16
I63
sg17
I473
sg18
g5
sg19
I600000
sg20
I1865087
sg21
I305
sg22
I14
sg23
I315068
sg24
I250100
sg25
I1410464
sg26
I1550019
sg27
F0.2222222222222222
ssS'DERRICK JR. JAMES V'
p504
(dp505
g3
I2181
sg4
g5
sg6
F0.029344337459880788
sg7
I51124
sg8
I00
sg9
I-1284000
sg10
S'james.derrick@enron.com'
p506
sg12
I484000
sg13
I-1787380
sg14
I1401
sg15
g5
sg16
I909
sg17
I7482
sg18
g5
sg19
I800000
sg20
I8831913
sg21
I64
sg22
I20
sS'total_compensation_abs_abs_abs_abs_abs_abs_abs_abs_abs_abs_abs_abs_abs_abs_abs_abs_abs_abs_abs_abs_abs_abs_abs_abs_abs_abs_abs_abs_abs_abs_abs_abs_abs_abs_abs_abs_abs_abs_abs_abs_abs_abs_abs_abs_abs_abs_abs_abs_abs_abs_abs_abs_abs_abs_abs_abs_abs_abs_abs_abs_abs_abs_abs_abs_abs_abs_abs_abs_abs_abs_abs_abs_abs_abs_abs_abs_abs_abs_abs_abs_abs_abs_abs_abs_abs_abs_abs_abs_abs_abs_abs_abs_abs_abs_abs_abs_abs_abs_abs_abs_abs_abs_abs_abs_abs_abs_abs_abs_abs_abs_abs_abs_abs_abs_abs_abs_abs_abs_abs_abs_abs_abs_abs_abs_abs_abs_abs_abs'
p507
I24908548
sg23
I1787380
sg24
I492375
sg25
I550981
sg26
I8831913
sg27
F0.022002200220022004
ssS'FREVERT MARK A'
p508
(dp509
g3
I3275
sg4
I6426990
sg6
F0.07389312977099237
sg7
I86987
sg8
I00
sg9
I-3367011
sg10
S'mark.frevert@enron.com'
p510
sg12
I1617011
sg13
g5
sg14
I2979
sg15
I2000000
sg16
I21
sg17
I7427621
sg18
g5
sg19
I2000000
sg20
I14622185
sg21
I242
sg22
I6
sg23
I4188667
sg24
I1060932
sg25
I17252530
sg26
I10433518
sg27
F0.2857142857142857
sS'total_compensation_abs_abs_abs_abs_abs_abs_abs_abs_abs_abs_abs_abs_abs_abs_abs_abs_abs_abs_abs_abs_abs_abs_abs_abs_abs_abs_abs_abs_abs_abs_abs_abs_abs_abs_abs_abs_abs_abs_abs_abs_abs_abs_abs_abs_abs_abs_abs_abs_abs_abs_abs_abs_abs_abs_abs_abs_abs_abs_abs_abs_abs_abs_abs_abs_abs_abs_abs_abs_abs_abs_abs_abs_abs_abs_abs_abs_abs_abs_abs_abs_abs_abs_abs_abs_abs_abs_abs_abs_abs_abs_abs_abs_abs_abs_abs_abs_abs_abs_abs_abs_abs_abs_abs_abs_abs_abs_abs_abs_abs_abs_abs_abs_abs_abs_abs_abs_abs_abs_abs_abs_abs_abs_abs_abs_abs_abs_abs_abs_abs'
p511
I70483452
ssS'PAI LOU L'
p512
(dp513
g3
g5
sg4
g5
sg6
I0
sg7
I32047
sg8
I00
sg9
g5
sg10
S'lou.pai@enron.com'
p514
sg12
g5
sg13
g5
sg14
g5
sg15
g5
sg16
g5
sg17
I1829457
sg18
g5
sS'total_compensation_abs_abs_abs_abs_abs_abs_abs_abs_abs_abs_abs_abs_abs_abs_abs_abs_abs_abs_abs_abs_abs_abs_abs_abs_abs_abs_abs_abs_abs_abs_abs_abs_abs_abs_abs_abs_abs_abs_abs_abs_abs_abs_abs_abs_abs_abs_abs_abs_abs_abs_abs_abs_abs_abs_abs_abs_abs_abs_abs_abs_abs_abs_abs_abs_abs_abs_abs_abs_abs_abs_abs_abs_abs_abs_abs_abs_abs_abs_abs_abs_abs_abs_abs_abs_abs_abs_abs_abs_abs_abs_abs_abs_abs_abs_abs_abs_abs_abs_abs_abs_abs_abs_abs_abs_abs_abs_abs_abs_abs_abs_abs_abs_abs_abs_abs_abs_abs_abs_abs_abs_abs_abs_abs_abs_abs_abs_abs_abs_abs_abs'
p515
I53882626
sg19
I1000000
sg20
I23817930
sg21
g5
sg22
g5
sg23
I8453763
sg24
I261879
sg25
I3123383
sg26
I15364167
sg27
I0
ssS'BAY FRANKLIN R'
p516
(dp517
g3
g5
sg4
I260455
sg6
I0
sg7
I129142
sg8
I00
sg9
I-201641
sg10
S'frank.bay@enron.com'
p518
sg12
g5
sg13
I-82782
sg14
g5
sg15
g5
sg16
g5
sg17
I69
sg18
g5
sg19
I400000
sg20
I63014
sg21
g5
sg22
g5
sg23
I145796
sg24
I239671
sg25
I827696
sS'total_compensation_abs_abs_abs_abs_abs_abs_abs_abs_abs_abs_abs_abs_abs_abs_abs_abs_abs_abs_abs_abs_abs_abs_abs_abs_abs_abs_abs_abs_abs_abs_abs_abs_abs_abs_abs_abs_abs_abs_abs_abs_abs_abs_abs_abs_abs_abs_abs_abs_abs_abs_abs_abs_abs_abs_abs_abs_abs_abs_abs_abs_abs_abs_abs_abs_abs_abs_abs_abs_abs_abs_abs_abs_abs_abs_abs_abs_abs_abs_abs_abs_abs_abs_abs_abs_abs_abs_abs_abs_abs_abs_abs_abs_abs_abs_abs_abs_abs_abs_abs_abs_abs_abs_abs_abs_abs_abs_abs_abs_abs_abs_abs_abs_abs_abs_abs_abs_abs_abs_abs_abs_abs_abs_abs_abs_abs_abs_abs_abs_abs_abs_abs'
p519
I2350266
sg26
g5
sg27
I0
ssS'HAYSLETT RODERICK J'
p520
(dp521
g3
I2649
sg4
g5
sg6
F0.01321253303133258
sg7
g5
sg8
I00
sg9
g5
sg10
S'rod.hayslett@enron.com'
p522
sg12
g5
sS'total_compensation_abs_abs_abs_abs_abs_abs_abs_abs_abs_abs_abs_abs_abs_abs_abs_abs_abs_abs_abs_abs_abs_abs_abs_abs_abs_abs_abs_abs_abs_abs_abs_abs_abs_abs_abs_abs_abs_abs_abs_abs_abs_abs_abs_abs_abs_abs_abs_abs_abs_abs_abs_abs_abs_abs_abs_abs_abs_abs_abs_abs_abs_abs_abs_abs_abs_abs_abs_abs_abs_abs_abs_abs_abs_abs_abs_abs_abs_abs_abs_abs_abs_abs_abs_abs_abs_abs_abs_abs_abs_abs_abs_abs_abs_abs_abs_abs_abs_abs_abs_abs_abs_abs_abs_abs_abs_abs_abs_abs_abs_abs_abs_abs_abs_abs_abs_abs_abs_abs_abs_abs_abs_abs_abs_abs_abs_abs_abs_abs_abs_abs_abs_abs'
p523
I693326
sg13
g5
sg14
I571
sg15
g5
sg16
I1061
sg17
g5
sg18
g5
sg19
g5
sg20
I346663
sg21
I35
sg22
I38
sg23
I346663
sg24
g5
sg25
g5
sg26
g5
sg27
F0.03581526861451461
ssS'FUGH JOHN L'
p524
(dp525
g3
g5
sg4
I50591
sg6
I0
sg7
g5
sg8
I00
sg9
g5
sg10
g5
sg12
g5
sg13
g5
sg14
g5
sg15
g5
sg16
g5
sg17
g5
sg18
g5
sS'total_compensation_abs_abs_abs_abs_abs_abs_abs_abs_abs_abs_abs_abs_abs_abs_abs_abs_abs_abs_abs_abs_abs_abs_abs_abs_abs_abs_abs_abs_abs_abs_abs_abs_abs_abs_abs_abs_abs_abs_abs_abs_abs_abs_abs_abs_abs_abs_abs_abs_abs_abs_abs_abs_abs_abs_abs_abs_abs_abs_abs_abs_abs_abs_abs_abs_abs_abs_abs_abs_abs_abs_abs_abs_abs_abs_abs_abs_abs_abs_abs_abs_abs_abs_abs_abs_abs_abs_abs_abs_abs_abs_abs_abs_abs_abs_abs_abs_abs_abs_abs_abs_abs_abs_abs_abs_abs_abs_abs_abs_abs_abs_abs_abs_abs_abs_abs_abs_abs_abs_abs_abs_abs_abs_abs_abs_abs_abs_abs_abs_abs_abs_abs_abs_abs'
p526
I453938
sg19
g5
sg20
I176378
sg21
g5
sg22
g5
sg23
g5
sg24
g5
sg25
I50591
sg26
I176378
sg27
I0
ssS'FALLON JAMES B'
p527
(dp528
g3
I1755
sg4
g5
sg6
F0.023931623931623933
sg7
I95924
sg8
I00
sg9
g5
sg10
S'jim.fallon@enron.com'
p529
sg12
I374347
sg13
g5
sg14
I1604
sg15
g5
sg16
I75
sg17
I401481
sg18
g5
sg19
I2500000
sg20
I2332399
sg21
I42
sg22
I37
sg23
I1392142
sg24
I304588
sg25
I3676340
sS'total_compensation_abs_abs_abs_abs_abs_abs_abs_abs_abs_abs_abs_abs_abs_abs_abs_abs_abs_abs_abs_abs_abs_abs_abs_abs_abs_abs_abs_abs_abs_abs_abs_abs_abs_abs_abs_abs_abs_abs_abs_abs_abs_abs_abs_abs_abs_abs_abs_abs_abs_abs_abs_abs_abs_abs_abs_abs_abs_abs_abs_abs_abs_abs_abs_abs_abs_abs_abs_abs_abs_abs_abs_abs_abs_abs_abs_abs_abs_abs_abs_abs_abs_abs_abs_abs_abs_abs_abs_abs_abs_abs_abs_abs_abs_abs_abs_abs_abs_abs_abs_abs_abs_abs_abs_abs_abs_abs_abs_abs_abs_abs_abs_abs_abs_abs_abs_abs_abs_abs_abs_abs_abs_abs_abs_abs_abs_abs_abs_abs_abs_abs_abs_abs_abs_abs'
p530
I12017478
sg26
I940257
sg27
F0.49333333333333335
ssS'KOENIG MARK E'
p531
(dp532
g3
I2374
sg4
g5
sg6
F0.02232518955349621
sg7
I127017
sg8
I01
sg9
g5
sg10
S'mark.koenig@enron.com'
p533
sg12
I300000
sg13
g5
sg14
I2271
sg15
g5
sg16
I61
sg17
I150458
sg18
g5
sS'total_compensation_abs_abs_abs_abs_abs_abs_abs_abs_abs_abs_abs_abs_abs_abs_abs_abs_abs_abs_abs_abs_abs_abs_abs_abs_abs_abs_abs_abs_abs_abs_abs_abs_abs_abs_abs_abs_abs_abs_abs_abs_abs_abs_abs_abs_abs_abs_abs_abs_abs_abs_abs_abs_abs_abs_abs_abs_abs_abs_abs_abs_abs_abs_abs_abs_abs_abs_abs_abs_abs_abs_abs_abs_abs_abs_abs_abs_abs_abs_abs_abs_abs_abs_abs_abs_abs_abs_abs_abs_abs_abs_abs_abs_abs_abs_abs_abs_abs_abs_abs_abs_abs_abs_abs_abs_abs_abs_abs_abs_abs_abs_abs_abs_abs_abs_abs_abs_abs_abs_abs_abs_abs_abs_abs_abs_abs_abs_abs_abs_abs_abs_abs_abs_abs_abs_abs'
p534
I7014952
sg19
I700000
sg20
I1920055
sg21
I53
sg22
I15
sg23
I1248318
sg24
I309946
sg25
I1587421
sg26
I671737
sg27
F0.2459016393442623
ssS'SAVAGE FRANK'
p535
(dp536
g3
g5
sg4
g5
sg6
I0
sg7
g5
sg8
I00
sg9
I-121284
sg10
g5
sg12
g5
sg13
g5
sg14
g5
sg15
g5
sg16
g5
sg17
g5
sg18
I125034
sg19
g5
sg20
g5
sg21
g5
sg22
g5
sg23
g5
sg24
g5
sg25
I3750
sS'total_compensation_abs_abs_abs_abs_abs_abs_abs_abs_abs_abs_abs_abs_abs_abs_abs_abs_abs_abs_abs_abs_abs_abs_abs_abs_abs_abs_abs_abs_abs_abs_abs_abs_abs_abs_abs_abs_abs_abs_abs_abs_abs_abs_abs_abs_abs_abs_abs_abs_abs_abs_abs_abs_abs_abs_abs_abs_abs_abs_abs_abs_abs_abs_abs_abs_abs_abs_abs_abs_abs_abs_abs_abs_abs_abs_abs_abs_abs_abs_abs_abs_abs_abs_abs_abs_abs_abs_abs_abs_abs_abs_abs_abs_abs_abs_abs_abs_abs_abs_abs_abs_abs_abs_abs_abs_abs_abs_abs_abs_abs_abs_abs_abs_abs_abs_abs_abs_abs_abs_abs_abs_abs_abs_abs_abs_abs_abs_abs_abs_abs_abs_abs_abs_abs_abs_abs_abs'
p537
I250068
sg26
g5
sg27
I0
ssS'IZZO LAWRENCE L'
p538
(dp539
g3
I496
sg4
g5
sg6
F0.056451612903225805
sg7
I28093
sg8
I00
sg9
g5
sg10
S'larry.izzo@enron.com'
p540
sg12
I312500
sg13
g5
sg14
I437
sg15
g5
sg16
I19
sg17
I1553729
sg18
g5
sg19
g5
sS'total_compensation_abs_abs_abs_abs_abs_abs_abs_abs_abs_abs_abs_abs_abs_abs_abs_abs_abs_abs_abs_abs_abs_abs_abs_abs_abs_abs_abs_abs_abs_abs_abs_abs_abs_abs_abs_abs_abs_abs_abs_abs_abs_abs_abs_abs_abs_abs_abs_abs_abs_abs_abs_abs_abs_abs_abs_abs_abs_abs_abs_abs_abs_abs_abs_abs_abs_abs_abs_abs_abs_abs_abs_abs_abs_abs_abs_abs_abs_abs_abs_abs_abs_abs_abs_abs_abs_abs_abs_abs_abs_abs_abs_abs_abs_abs_abs_abs_abs_abs_abs_abs_abs_abs_abs_abs_abs_abs_abs_abs_abs_abs_abs_abs_abs_abs_abs_abs_abs_abs_abs_abs_abs_abs_abs_abs_abs_abs_abs_abs_abs_abs_abs_abs_abs_abs_abs_abs_abs'
p541
I15599152
sg20
I5819980
sg21
I28
sg22
I5
sg23
I3654808
sg24
I85274
sg25
I1979596
sg26
I2165172
sg27
F0.2631578947368421
ssS'TILNEY ELIZABETH A'
p542
(dp543
g3
I460
sg4
g5
sg6
F0.021739130434782608
sg7
g5
sS'total_compensation_abs_abs_abs_abs_abs_abs_abs_abs_abs_abs_abs_abs_abs_abs_abs_abs_abs_abs_abs_abs_abs_abs_abs_abs_abs_abs_abs_abs_abs_abs_abs_abs_abs_abs_abs_abs_abs_abs_abs_abs_abs_abs_abs_abs_abs_abs_abs_abs_abs_abs_abs_abs_abs_abs_abs_abs_abs_abs_abs_abs_abs_abs_abs_abs_abs_abs_abs_abs_abs_abs_abs_abs_abs_abs_abs_abs_abs_abs_abs_abs_abs_abs_abs_abs_abs_abs_abs_abs_abs_abs_abs_abs_abs_abs_abs_abs_abs_abs_abs_abs_abs_abs_abs_abs_abs_abs_abs_abs_abs_abs_abs_abs_abs_abs_abs_abs_abs_abs_abs_abs_abs_abs_abs_abs_abs_abs_abs_abs_abs_abs_abs_abs_abs_abs_abs_abs_abs_abs'
p544
I4284870
sg8
I00
sg9
I-575000
sg10
S'elizabeth.tilney@enron.com'
p545
sg12
I275000
sg13
g5
sg14
I379
sg15
g5
sg16
I19
sg17
I152055
sg18
g5
sg19
I300000
sg20
I1168042
sg21
I10
sg22
I11
sg23
I576792
sg24
I247338
sg25
I399393
sg26
I591250
sg27
F0.5789473684210527
ssS'MARTIN AMANDA K'
p546
(dp547
g3
I1522
sg4
I85430
sg6
F0.005256241787122208
sg7
I8211
sg8
I00
sg9
g5
sg10
S'a..martin@enron.com'
p548
sg12
I5145434
sg13
g5
sg14
I477
sg15
g5
sg16
I230
sg17
I2818454
sg18
g5
sg19
g5
sg20
I2070306
sg21
I8
sg22
I0
sg23
g5
sg24
I349487
sg25
I8407016
sg26
I2070306
sS'total_compensation_abs_abs_abs_abs_abs_abs_abs_abs_abs_abs_abs_abs_abs_abs_abs_abs_abs_abs_abs_abs_abs_abs_abs_abs_abs_abs_abs_abs_abs_abs_abs_abs_abs_abs_abs_abs_abs_abs_abs_abs_abs_abs_abs_abs_abs_abs_abs_abs_abs_abs_abs_abs_abs_abs_abs_abs_abs_abs_abs_abs_abs_abs_abs_abs_abs_abs_abs_abs_abs_abs_abs_abs_abs_abs_abs_abs_abs_abs_abs_abs_abs_abs_abs_abs_abs_abs_abs_abs_abs_abs_abs_abs_abs_abs_abs_abs_abs_abs_abs_abs_abs_abs_abs_abs_abs_abs_abs_abs_abs_abs_abs_abs_abs_abs_abs_abs_abs_abs_abs_abs_abs_abs_abs_abs_abs_abs_abs_abs_abs_abs_abs_abs_abs_abs_abs_abs_abs_abs_abs'
p549
I20954644
sg27
F0.0
ssS'BUY RICHARD B'
p550
(dp551
g3
I3523
sg4
I649584
sg6
F0.04428044280442804
sg7
g5
sg8
I00
sg9
I-694862
sg10
S'rick.buy@enron.com'
p552
sg12
I769862
sg13
g5
sg14
I2333
sg15
g5
sg16
I1053
sg17
I400572
sg18
g5
sg19
I900000
sg20
I3444470
sg21
I156
sg22
I71
sg23
I901657
sg24
I330546
sS'total_compensation_abs_abs_abs_abs_abs_abs_abs_abs_abs_abs_abs_abs_abs_abs_abs_abs_abs_abs_abs_abs_abs_abs_abs_abs_abs_abs_abs_abs_abs_abs_abs_abs_abs_abs_abs_abs_abs_abs_abs_abs_abs_abs_abs_abs_abs_abs_abs_abs_abs_abs_abs_abs_abs_abs_abs_abs_abs_abs_abs_abs_abs_abs_abs_abs_abs_abs_abs_abs_abs_abs_abs_abs_abs_abs_abs_abs_abs_abs_abs_abs_abs_abs_abs_abs_abs_abs_abs_abs_abs_abs_abs_abs_abs_abs_abs_abs_abs_abs_abs_abs_abs_abs_abs_abs_abs_abs_abs_abs_abs_abs_abs_abs_abs_abs_abs_abs_abs_abs_abs_abs_abs_abs_abs_abs_abs_abs_abs_abs_abs_abs_abs_abs_abs_abs_abs_abs_abs_abs_abs_abs'
p553
I12990068
sg25
I2355702
sg26
I2542813
sg27
F0.06742640075973409
ssS'GRAMM WENDY L'
p554
(dp555
g3
g5
sg4
g5
sg6
I0
sg7
g5
sg8
I00
sg9
g5
sg10
g5
sg12
g5
sg13
g5
sg14
g5
sg15
g5
sg16
g5
sg17
g5
sg18
I119292
sg19
g5
sg20
g5
sg21
g5
sg22
g5
sg23
g5
sg24
g5
sg25
I119292
sg26
g5
sS'total_compensation_abs_abs_abs_abs_abs_abs_abs_abs_abs_abs_abs_abs_abs_abs_abs_abs_abs_abs_abs_abs_abs_abs_abs_abs_abs_abs_abs_abs_abs_abs_abs_abs_abs_abs_abs_abs_abs_abs_abs_abs_abs_abs_abs_abs_abs_abs_abs_abs_abs_abs_abs_abs_abs_abs_abs_abs_abs_abs_abs_abs_abs_abs_abs_abs_abs_abs_abs_abs_abs_abs_abs_abs_abs_abs_abs_abs_abs_abs_abs_abs_abs_abs_abs_abs_abs_abs_abs_abs_abs_abs_abs_abs_abs_abs_abs_abs_abs_abs_abs_abs_abs_abs_abs_abs_abs_abs_abs_abs_abs_abs_abs_abs_abs_abs_abs_abs_abs_abs_abs_abs_abs_abs_abs_abs_abs_abs_abs_abs_abs_abs_abs_abs_abs_abs_abs_abs_abs_abs_abs_abs_abs'
p556
I238584
sg27
I0
ssS'CAUSEY RICHARD A'
p557
(dp558
g3
I1892
sg4
g5
sg6
F0.0306553911205074
sg7
I30674
sS'total_compensation_abs_abs_abs_abs_abs_abs_abs_abs_abs_abs_abs_abs_abs_abs_abs_abs_abs_abs_abs_abs_abs_abs_abs_abs_abs_abs_abs_abs_abs_abs_abs_abs_abs_abs_abs_abs_abs_abs_abs_abs_abs_abs_abs_abs_abs_abs_abs_abs_abs_abs_abs_abs_abs_abs_abs_abs_abs_abs_abs_abs_abs_abs_abs_abs_abs_abs_abs_abs_abs_abs_abs_abs_abs_abs_abs_abs_abs_abs_abs_abs_abs_abs_abs_abs_abs_abs_abs_abs_abs_abs_abs_abs_abs_abs_abs_abs_abs_abs_abs_abs_abs_abs_abs_abs_abs_abs_abs_abs_abs_abs_abs_abs_abs_abs_abs_abs_abs_abs_abs_abs_abs_abs_abs_abs_abs_abs_abs_abs_abs_abs_abs_abs_abs_abs_abs_abs_abs_abs_abs_abs_abs_abs'
p559
I9211642
sg8
I01
sg9
I-235000
sg10
S'richard.causey@enron.com'
p560
sg12
I350000
sg13
g5
sg14
I1585
sg15
g5
sg16
I49
sg17
I307895
sg18
g5
sg19
I1000000
sg20
I2502063
sg21
I58
sg22
I12
sg23
I2502063
sg24
I415189
sg25
I1868758
sg26
g5
sg27
F0.24489795918367346
ssS'TAYLOR MITCHELL S'
p561
(dp562
g3
I533
sg4
I227449
sg6
F0.0
sg7
g5
sg8
I00
sg9
g5
sg10
S'mitchell.taylor@enron.com'
p563
sg12
g5
sg13
g5
sg14
I300
sg15
g5
sg16
I29
sg17
g5
sg18
g5
sg19
I600000
sg20
I3745048
sg21
I0
sg22
I0
sg23
I563798
sg24
I265214
sg25
I1092663
sS'total_compensation_abs_abs_abs_abs_abs_abs_abs_abs_abs_abs_abs_abs_abs_abs_abs_abs_abs_abs_abs_abs_abs_abs_abs_abs_abs_abs_abs_abs_abs_abs_abs_abs_abs_abs_abs_abs_abs_abs_abs_abs_abs_abs_abs_abs_abs_abs_abs_abs_abs_abs_abs_abs_abs_abs_abs_abs_abs_abs_abs_abs_abs_abs_abs_abs_abs_abs_abs_abs_abs_abs_abs_abs_abs_abs_abs_abs_abs_abs_abs_abs_abs_abs_abs_abs_abs_abs_abs_abs_abs_abs_abs_abs_abs_abs_abs_abs_abs_abs_abs_abs_abs_abs_abs_abs_abs_abs_abs_abs_abs_abs_abs_abs_abs_abs_abs_abs_abs_abs_abs_abs_abs_abs_abs_abs_abs_abs_abs_abs_abs_abs_abs_abs_abs_abs_abs_abs_abs_abs_abs_abs_abs_abs_abs'
p564
I9675422
sg26
I3181250
sg27
F0.0
ssS'DONAHUE JR JEFFREY M'
p565
(dp566
g3
I865
sg4
g5
sg6
F0.21734104046242775
sg7
I96268
sg8
I00
sg9
I-300000
sg10
S'jeff.donahue@enron.com'
p567
sg12
g5
sg13
g5
sg14
I772
sg15
g5
sg16
I22
sg17
I891
sg18
g5
sg19
I800000
sg20
I1080988
sg21
I188
sg22
I11
sg23
I315068
sg24
I278601
sg25
I875760
sg26
I765920
sS'total_compensation_abs_abs_abs_abs_abs_abs_abs_abs_abs_abs_abs_abs_abs_abs_abs_abs_abs_abs_abs_abs_abs_abs_abs_abs_abs_abs_abs_abs_abs_abs_abs_abs_abs_abs_abs_abs_abs_abs_abs_abs_abs_abs_abs_abs_abs_abs_abs_abs_abs_abs_abs_abs_abs_abs_abs_abs_abs_abs_abs_abs_abs_abs_abs_abs_abs_abs_abs_abs_abs_abs_abs_abs_abs_abs_abs_abs_abs_abs_abs_abs_abs_abs_abs_abs_abs_abs_abs_abs_abs_abs_abs_abs_abs_abs_abs_abs_abs_abs_abs_abs_abs_abs_abs_abs_abs_abs_abs_abs_abs_abs_abs_abs_abs_abs_abs_abs_abs_abs_abs_abs_abs_abs_abs_abs_abs_abs_abs_abs_abs_abs_abs_abs_abs_abs_abs_abs_abs_abs_abs_abs_abs_abs_abs_abs'
p568
I4513496
sg27
F0.5
ssS'GLISAN JR BEN F'
p569
(dp570
g3
I873
sg4
g5
sg6
F0.05956471935853379
sg7
I125978
sg8
I01
sg9
g5
sg10
S'ben.glisan@enron.com'
p571
sg12
I71023
sS'total_compensation_abs_abs_abs_abs_abs_abs_abs_abs_abs_abs_abs_abs_abs_abs_abs_abs_abs_abs_abs_abs_abs_abs_abs_abs_abs_abs_abs_abs_abs_abs_abs_abs_abs_abs_abs_abs_abs_abs_abs_abs_abs_abs_abs_abs_abs_abs_abs_abs_abs_abs_abs_abs_abs_abs_abs_abs_abs_abs_abs_abs_abs_abs_abs_abs_abs_abs_abs_abs_abs_abs_abs_abs_abs_abs_abs_abs_abs_abs_abs_abs_abs_abs_abs_abs_abs_abs_abs_abs_abs_abs_abs_abs_abs_abs_abs_abs_abs_abs_abs_abs_abs_abs_abs_abs_abs_abs_abs_abs_abs_abs_abs_abs_abs_abs_abs_abs_abs_abs_abs_abs_abs_abs_abs_abs_abs_abs_abs_abs_abs_abs_abs_abs_abs_abs_abs_abs_abs_abs_abs_abs_abs_abs_abs_abs_abs'
p572
I4101660
sg13
g5
sg14
I874
sg15
g5
sg16
I16
sg17
I200308
sg18
g5
sg19
I600000
sg20
I778546
sg21
I52
sg22
I6
sg23
I393818
sg24
I274975
sg25
I1272284
sg26
I384728
sg27
F0.375
ss.