(dp0
S'METTS MARK'
p1
(dp2
S'to_messages'
p3
I807
sS'deferral_payments'
p4
S'NaN'
p5
sS'expenses'
p6
I94299
sS'poi'
p7
I00
sS'deferred_income'
p8
g5
sS'email_address'
p9
S'mark.metts@enron.com'
p10
sS'long_term_incentive'
p11
g5
sS'restricted_stock_deferred'
p12
g5
sS'shared_receipt_with_poi'
p13
I702
sS'loan_advances'
p14
g5
sS'from_messages'
p15
I29
sS'other'
p16
I1740
sS'director_fees'
p17
g5
sS'bonus'
p18
I600000
sS'total_stock_value'
p19
I585062
sS'from_poi_to_this_person'
p20
I38
sS'from_this_person_to_poi'
p21
I1
sS'restricted_stock'
p22
I585062
sS'salary'
p23
I365788
sS'total_payments'
p24
I1061827
sS'exercised_stock_options'
p25
g5
sS'total_compensation_abs'
p26
I3293778
ssS'BAXTER JOHN C'
p27
(dp28
g3
g5
sg4
I1295738
sg6
I11200
sg7
I00
sg8
I-1386055
sg9
g5
sg11
I1586055
sg12
g5
sg13
g5
sg14
g5
sg15
g5
sg16
I2660303
sg17
g5
sS'total_compensation_abs_abs'
p29
I35287312
sg18
I1200000
sg19
I10623258
sg20
g5
sg21
g5
sg22
I3942714
sg23
I267102
sg24
I5634343
sg25
I6680544
ssS'ELLIOTT STEVEN'
p30
(dp31
g3
g5
sg4
g5
sg6
I78552
sg7
I00
sg8
I-400729
sg9
S'steven.elliott@enron.com'
p32
sg11
g5
sg12
g5
sg13
g5
sg14
g5
sg15
g5
sg16
I12961
sg17
g5
sg18
I350000
sg19
I6678735
sg20
g5
sg21
g5
sg22
I1788391
sg23
I170941
sg24
I211725
sS'total_compensation_abs_abs_abs'
p33
I14582378
sg25
I4890344
ssS'CORDES WILLIAM R'
p34
(dp35
g3
I764
sg4
g5
sg6
g5
sg7
I00
sg8
g5
sg9
S'bill.cordes@enron.com'
p36
sg11
g5
sg14
g5
sg12
g5
sg13
I58
sS'total_compensation_abs_abs_abs_abs'
p37
I2076370
sg15
I12
sg16
g5
sg17
g5
sg18
g5
sg19
I1038185
sg20
I10
sg21
I0
sg22
I386335
sg23
g5
sg24
g5
sg25
I651850
ssS'HANNON KEVIN P'
p38
(dp39
g3
I1045
sg4
g5
sg6
I34039
sg7
I01
sg8
I-3117011
sg9
S'kevin.hannon@enron.com'
p40
sg11
I1617011
sg12
g5
sg13
I1035
sg14
g5
sg15
I32
sg16
I11350
sg17
g5
sS'total_compensation_abs_abs_abs_abs_abs'
p41
I19593516
sg18
I1500000
sg19
I6391065
sg20
I32
sg21
I21
sg22
I853064
sg23
I243293
sg24
I288682
sg25
I5538001
ssS'MORDAUNT KRISTINA M'
p42
(dp43
g3
g5
sg4
g5
sg6
I35018
sg7
I00
sg8
g5
sg9
S'kristina.mordaunt@enron.com'
p44
sg11
g5
sg12
g5
sg13
g5
sg14
g5
sg15
g5
sg16
I1411
sg17
g5
sg18
I325000
sg19
I208510
sg20
g5
sg21
g5
sg22
I208510
sg23
I267093
sg24
I628522
sS'total_compensation_abs_abs_abs_abs_abs_abs'
p45
I1674064
sg25
g5
ssS'MEYER ROCKFORD G'
p46
(dp47
g3
I232
sg4
I1848227
sg6
g5
sg7
I00
sg8
g5
sg9
S'rockford.meyer@enron.com'
p48
sg11
g5
sg12
g5
sg13
I22
sg14
g5
sg15
I28
sg16
g5
sg17
g5
sS'total_compensation_abs_abs_abs_abs_abs_abs_abs'
p49
I5608200
sg18
g5
sg19
I955873
sg20
I0
sg21
I0
sg22
I462384
sg23
g5
sg24
I1848227
sg25
I493489
ssS'MCMAHON JEFFREY'
p50
(dp51
g3
I2355
sg4
g5
sg6
I137108
sg7
I00
sg8
g5
sg9
S'jeffrey.mcmahon@enron.com'
p52
sg11
I694862
sg12
g5
sg13
I2228
sg14
g5
sg15
I48
sg16
I297353
sg17
g5
sg18
I2600000
sg19
I1662855
sg20
I58
sg21
I26
sg22
I558801
sg23
I370448
sg24
I4099771
sS'total_compensation_abs_abs_abs_abs_abs_abs_abs_abs'
p53
I11525252
sg25
I1104054
ssS'HORTON STANLEY C'
p54
(dp55
g3
I2350
sg4
I3131860
sg6
g5
sg7
I00
sg8
g5
sg9
S'stanley.horton@enron.com'
p56
sg11
g5
sg12
g5
sg13
I1074
sg14
g5
sg15
I1073
sg16
g5
sg17
g5
sg18
g5
sS'total_compensation_abs_abs_abs_abs_abs_abs_abs_abs_abs'
p57
I20777016
sg19
I7256648
sg20
I44
sg21
I15
sg22
I2046079
sg23
g5
sg24
I3131860
sg25
I5210569
ssS'PIPER GREGORY F'
p58
(dp59
g3
I1238
sg4
I1130036
sg6
I43057
sS'total_compensation_abs_abs_abs_abs_abs_abs_abs_abs_abs_abs'
p60
I6121612
sg7
I00
sg8
I-33333
sg9
S'greg.piper@enron.com'
p61
sg11
g5
sg12
I-409554
sg13
I742
sg14
g5
sg15
I222
sg16
I778
sg17
g5
sg18
I400000
sg19
I880290
sg20
I61
sg21
I48
sg22
I409554
sg23
I197091
sg24
I1737629
sg25
I880290
ssS'HUMPHREY GENE E'
p62
(dp63
g3
I128
sg4
I2964506
sg6
I4994
sg7
I00
sg8
g5
sg9
S'gene.humphrey@enron.com'
p64
sg11
g5
sg12
g5
sg13
I119
sg14
g5
sg15
I17
sg16
g5
sg17
g5
sg18
g5
sg19
I2282768
sg20
I10
sg21
I17
sg22
g5
sg23
I130724
sg24
I3100224
sg25
I2282768
sS'total_compensation_abs_abs_abs_abs_abs_abs_abs_abs_abs_abs_abs'
p65
I10765984
ssS'UMANOFF ADAM S'
p66
(dp67
g3
I111
sg4
g5
sg6
I53122
sg7
I00
sg8
g5
sg9
S'adam.umanoff@enron.com'
p68
sg11
g5
sg12
g5
sg13
I41
sg14
g5
sg15
I18
sg16
g5
sg17
g5
sg18
I788750
sg19
g5
sg20
I12
sg21
I0
sg22
g5
sg23
I288589
sS'total_compensation_abs_abs_abs_abs_abs_abs_abs_abs_abs_abs_abs_abs'
p69
I2260922
sg24
I1130461
sg25
g5
ssS'BLACHMAN JEREMY M'
p70
(dp71
g3
I2475
sg4
g5
sg6
I84208
sg7
I00
sg8
g5
sg9
S'jeremy.blachman@enron.com'
p72
sg11
I831809
sg12
g5
sg13
I2326
sg14
g5
sg15
I14
sg16
I272
sg17
g5
sg18
I850000
sg19
I954354
sg20
I25
sg21
I2
sg22
I189041
sg23
I248546
sg24
I2014835
sg25
I765313
sS'total_compensation_abs_abs_abs_abs_abs_abs_abs_abs_abs_abs_abs_abs_abs'
p73
I5938378
ssS'SUNDE MARTIN'
p74
(dp75
g3
I2647
sg4
g5
sg6
g5
sg7
I00
sg8
g5
sg9
S'marty.sunde@enron.com'
p76
sS'total_compensation_abs_abs_abs_abs_abs_abs_abs_abs_abs_abs_abs_abs_abs_abs'
p77
I4487958
sg12
g5
sg13
I2565
sg14
g5
sg15
I38
sg16
I111122
sg17
g5
sg18
I700000
sg19
I698920
sg20
I37
sg21
I13
sg11
I476451
sg22
I698920
sg23
I257486
sg24
I1545059
sg25
g5
ssS'GIBBS DANA R'
p78
(dp79
g3
I169
sg4
I504610
sg6
g5
sg7
I00
sg8
g5
sg9
S'dana.gibbs@enron.com'
p80
sg11
I461912
sg12
g5
sg13
I23
sg14
g5
sg15
I12
sg16
g5
sg17
g5
sg18
g5
sg19
I2218275
sg20
I0
sg21
I0
sg22
g5
sg23
g5
sg24
I966522
sS'total_compensation_abs_abs_abs_abs_abs_abs_abs_abs_abs_abs_abs_abs_abs_abs_abs'
p81
I6369594
sg25
I2218275
ssS'LOWRY CHARLES P'
p82
(dp83
g3
g5
sg4
g5
sg6
g5
sg7
I00
sg8
g5
sg9
g5
sg11
g5
sg12
I-153686
sg13
g5
sg14
g5
sg15
g5
sg16
g5
sg17
g5
sg18
g5
sg19
I372205
sg20
g5
sg21
g5
sg22
I153686
sg23
g5
sg24
g5
sg25
I372205
sS'total_compensation_abs_abs_abs_abs_abs_abs_abs_abs_abs_abs_abs_abs_abs_abs_abs_abs'
p84
I1051782
ssS'COLWELL WESLEY'
p85
(dp86
g3
I1758
sg4
I27610
sg6
I16514
sg7
I01
sg8
I-144062
sg9
S'wes.colwell@enron.com'
p87
sg11
g5
sS'total_compensation_abs_abs_abs_abs_abs_abs_abs_abs_abs_abs_abs_abs_abs_abs_abs_abs_abs'
p88
I4665296
sg12
g5
sg13
I1132
sg14
g5
sg15
I40
sg16
I101740
sg17
g5
sg18
I1200000
sg19
I698242
sg20
I240
sg21
I11
sg22
I698242
sg23
I288542
sg24
I1490344
sg25
g5
ssS'MULLER MARK S'
p89
(dp90
g3
I136
sg4
I842924
sg6
g5
sg7
I00
sg8
I-719000
sg9
S's..muller@enron.com'
p91
sg11
I1725545
sg12
g5
sg13
I114
sg14
g5
sg15
I16
sg16
I947
sg17
g5
sg18
I1100000
sg19
I1416848
sg20
I12
sg21
I0
sg22
I360528
sg23
I251654
sS'total_compensation_abs_abs_abs_abs_abs_abs_abs_abs_abs_abs_abs_abs_abs_abs_abs_abs_abs_abs'
p92
I10675836
sg24
I3202070
sg25
I1056320
ssS'JACKSON CHARLENE R'
p93
(dp94
g3
I258
sg4
g5
sg6
I10181
sg7
I00
sg8
g5
sg9
S'charlene.jackson@enron.com'
p95
sg11
g5
sg12
g5
sg13
I117
sg14
g5
sg15
I56
sg16
I2435
sg17
g5
sg18
I250000
sg19
I725735
sg20
I25
sg21
I19
sg22
I540672
sg23
I288558
sg24
I551174
sg25
I185063
sS'total_compensation_abs_abs_abs_abs_abs_abs_abs_abs_abs_abs_abs_abs_abs_abs_abs_abs_abs_abs_abs'
p96
I2553818
ssS'WESTFAHL RICHARD K'
p97
(dp98
g3
g5
sg4
g5
sg6
I51870
sS'total_compensation_abs_abs_abs_abs_abs_abs_abs_abs_abs_abs_abs_abs_abs_abs_abs_abs_abs_abs_abs_abs'
p99
I2315730
sg7
I00
sg8
I-10800
sg9
S'dick.westfahl@enron.com'
p100
sg11
I256191
sg12
g5
sg13
g5
sg14
g5
sg15
g5
sg16
I401130
sg17
g5
sg18
g5
sg19
I384930
sg20
g5
sg21
g5
sg22
I384930
sg23
I63744
sg24
I762135
sg25
g5
ssS'WALTERS GARETH W'
p101
(dp102
g3
g5
sg4
I53625
sg6
I33785
sg7
I00
sg8
g5
sg9
g5
sg11
g5
sg12
g5
sg13
g5
sg14
g5
sg15
g5
sg16
g5
sg17
g5
sg18
g5
sg19
I1030329
sg20
g5
sg21
g5
sg22
g5
sg23
g5
sS'total_compensation_abs_abs_abs_abs_abs_abs_abs_abs_abs_abs_abs_abs_abs_abs_abs_abs_abs_abs_abs_abs_abs'
p103
I2235478
sg24
I87410
sg25
I1030329
ssS'WALLS JR ROBERT H'
p104
(dp105
g3
I671
sg4
g5
sg6
I50936
sg7
I00
sg8
g5
sg9
S'rob.walls@enron.com'
p106
sg11
I540751
sg12
g5
sg13
I215
sg14
g5
sg15
I146
sg16
I2
sg17
g5
sg18
I850000
sS'total_compensation_abs_abs_abs_abs_abs_abs_abs_abs_abs_abs_abs_abs_abs_abs_abs_abs_abs_abs_abs_abs_abs_abs'
p107
I15395554
sg19
I5898997
sg20
I17
sg21
I0
sg22
I1552453
sg23
I357091
sg24
I1798780
sg25
I4346544
ssS'KITCHEN LOUISE'
p108
(dp109
g3
I8305
sg4
g5
sg6
I5774
sg7
I00
sg8
g5
sg9
S'louise.kitchen@enron.com'
p110
sg11
g5
sg12
g5
sg13
I3669
sg14
g5
sg15
I1728
sg16
I93925
sg17
g5
sS'total_compensation_abs_abs_abs_abs_abs_abs_abs_abs_abs_abs_abs_abs_abs_abs_abs_abs_abs_abs_abs_abs_abs_abs_abs'
p111
I8036568
sg18
I3100000
sg19
I547143
sg20
I251
sg21
I194
sg22
I466101
sg23
I271442
sg24
I3471141
sg25
I81042
ssS'CHAN RONNIE'
p112
(dp113
g3
g5
sg4
g5
sg6
g5
sg7
I00
sg8
I-98784
sg9
g5
sg11
g5
sg12
I-32460
sg13
g5
sg14
g5
sg15
g5
sg16
g5
sg17
I98784
sg18
g5
sS'total_compensation_abs_abs_abs_abs_abs_abs_abs_abs_abs_abs_abs_abs_abs_abs_abs_abs_abs_abs_abs_abs_abs_abs_abs_abs'
p114
I262488
sg19
g5
sg20
g5
sg21
g5
sg22
I32460
sg23
g5
sg24
g5
sg25
g5
ssS'BELFER ROBERT'
p115
(dp116
g3
g5
sg4
I-102500
sg6
g5
sg7
I00
sg8
g5
sg9
g5
sg11
g5
sg12
I44093
sg13
g5
sg14
g5
sg15
g5
sg16
g5
sg17
I3285
sg18
g5
sg19
I-44093
sg20
g5
sg21
g5
sg22
g5
sg23
g5
sg24
I102500
sS'total_compensation_abs_abs_abs_abs_abs_abs_abs_abs_abs_abs_abs_abs_abs_abs_abs_abs_abs_abs_abs_abs_abs_abs_abs_abs_abs'
p117
I299756
sg25
I3285
ssS'SHANKMAN JEFFREY A'
p118
(dp119
g3
I3221
sg4
g5
sg6
I178979
sg7
I00
sg8
g5
sg9
S'jeffrey.shankman@enron.com'
p120
sg11
I554422
sg12
g5
sg13
I1730
sg14
g5
sg15
I2681
sg16
I1191
sg17
g5
sg18
I2000000
sg19
I2072035
sg20
I94
sg21
I83
sg22
I630137
sg23
I304110
sg24
I3038702
sg25
I1441898
sS'total_compensation_abs_abs_abs_abs_abs_abs_abs_abs_abs_abs_abs_abs_abs_abs_abs_abs_abs_abs_abs_abs_abs_abs_abs_abs_abs_abs'
p121
I10221474
ssS'WODRASKA JOHN'
p122
(dp123
g3
g5
sg4
g5
sg6
g5
sg7
I00
sS'total_compensation_abs_abs_abs_abs_abs_abs_abs_abs_abs_abs_abs_abs_abs_abs_abs_abs_abs_abs_abs_abs_abs_abs_abs_abs_abs_abs_abs'
p124
I379166
sg8
g5
sg9
S'john.wodraska@enron.com'
p125
sg11
g5
sg12
g5
sg13
g5
sg14
g5
sg15
g5
sg16
I189583
sg17
g5
sg18
g5
sg19
g5
sg20
g5
sg21
g5
sg22
g5
sg23
g5
sg24
I189583
sg25
g5
ssS'BERGSIEKER RICHARD P'
p126
(dp127
g3
I383
sg4
g5
sS'total_compensation_abs_abs_abs_abs_abs_abs_abs_abs_abs_abs_abs_abs_abs_abs_abs_abs_abs_abs_abs_abs_abs_abs_abs_abs_abs_abs_abs_abs'
p128
I3527824
sg6
I59175
sg7
I00
sg8
I-485813
sg9
S'rick.bergsieker@enron.com'
p129
sg11
I180250
sg12
g5
sg13
I233
sg14
g5
sg15
I59
sg16
I427316
sg17
g5
sg18
I250000
sg19
I659249
sg20
I4
sg21
I0
sg22
I659249
sg23
I187922
sg24
I618850
sg25
g5
ssS'URQUHART JOHN A'
p130
(dp131
g3
g5
sg4
g5
sg6
I228656
sg7
I00
sg8
I-36666
sg9
g5
sg11
g5
sg12
g5
sg13
g5
sg14
g5
sg15
g5
sg16
g5
sg17
I36666
sg18
g5
sg19
g5
sg20
g5
sS'total_compensation_abs_abs_abs_abs_abs_abs_abs_abs_abs_abs_abs_abs_abs_abs_abs_abs_abs_abs_abs_abs_abs_abs_abs_abs_abs_abs_abs_abs_abs'
p132
I530644
sg21
g5
sg22
g5
sg23
g5
sg24
I228656
sg25
g5
ssS'BIBI PHILIPPE A'
p133
(dp134
g3
I1607
sg4
g5
sg6
I38559
sg7
I00
sg8
g5
sg9
S'philippe.bibi@enron.com'
p135
sg11
I369721
sg12
g5
sg13
I1336
sg14
g5
sg15
I40
sg16
I425688
sS'total_compensation_abs_abs_abs_abs_abs_abs_abs_abs_abs_abs_abs_abs_abs_abs_abs_abs_abs_abs_abs_abs_abs_abs_abs_abs_abs_abs_abs_abs_abs_abs'
p136
I7782818
sg18
I1000000
sg19
I1843816
sg20
I23
sg21
I8
sg22
I378082
sg23
I213625
sg24
I2047593
sg17
g5
sg25
I1465734
ssS'RIEKER PAULA H'
p137
(dp138
g3
I1328
sg4
I214678
sg6
I33271
sg7
I01
sg8
I-100000
sg9
S'paula.rieker@enron.com'
p139
sg11
g5
sg12
g5
sg13
I1258
sg14
g5
sg15
I82
sg16
I1950
sg20
I35
sg17
g5
sg18
I700000
sg19
I1918887
sS'total_compensation_abs_abs_abs_abs_abs_abs_abs_abs_abs_abs_abs_abs_abs_abs_abs_abs_abs_abs_abs_abs_abs_abs_abs_abs_abs_abs_abs_abs_abs_abs_abs'
p140
I6235974
sg21
I48
sg22
I283649
sg23
I249201
sg24
I1099100
sg25
I1635238
ssS'WHALEY DAVID A'
p141
(dp142
g3
g5
sg4
g5
sg6
g5
sg7
I00
sS'total_compensation_abs_abs_abs_abs_abs_abs_abs_abs_abs_abs_abs_abs_abs_abs_abs_abs_abs_abs_abs_abs_abs_abs_abs_abs_abs_abs_abs_abs_abs_abs_abs_abs'
p143
I197436
sg8
g5
sg9
g5
sg11
g5
sg12
g5
sg13
g5
sg14
g5
sg15
g5
sg16
g5
sg17
g5
sg18
g5
sg19
I98718
sg20
g5
sg21
g5
sg22
g5
sg23
g5
sg24
g5
sg25
I98718
ssS'BECK SALLY W'
p144
(dp145
g3
I7315
sg4
g5
sg6
I37172
sg7
I00
sg8
g5
sg9
S'sally.beck@enron.com'
p146
sg11
g5
sg12
g5
sg13
I2639
sg14
g5
sg15
I4343
sg16
I566
sS'total_compensation_abs_abs_abs_abs_abs_abs_abs_abs_abs_abs_abs_abs_abs_abs_abs_abs_abs_abs_abs_abs_abs_abs_abs_abs_abs_abs_abs_abs_abs_abs_abs_abs_abs'
p147
I2190190
sg17
g5
sg18
I700000
sg19
I126027
sg20
I144
sg21
I386
sg22
I126027
sg23
I231330
sg24
I969068
sg25
g5
ssS'HAUG DAVID L'
p148
(dp149
g3
I573
sg4
g5
sS'total_compensation_abs_abs_abs_abs_abs_abs_abs_abs_abs_abs_abs_abs_abs_abs_abs_abs_abs_abs_abs_abs_abs_abs_abs_abs_abs_abs_abs_abs_abs_abs_abs_abs_abs_abs'
p150
I4435548
sg6
I475
sg7
I00
sg8
g5
sg9
S'david.haug@enron.com'
p151
sg11
g5
sg12
g5
sg13
I471
sg14
g5
sg15
I19
sg16
g5
sg17
g5
sg18
g5
sg19
I2217299
sg20
I4
sg21
I7
sg22
I2217299
sg23
g5
sg24
I475
sg25
g5
ssS'ECHOLS JOHN B'
p152
(dp153
g3
g5
sg4
g5
sg6
I21530
sg7
I00
sg8
g5
sg9
S'john.echols@enron.com'
p154
sg11
I2234774
sS'total_compensation_abs_abs_abs_abs_abs_abs_abs_abs_abs_abs_abs_abs_abs_abs_abs_abs_abs_abs_abs_abs_abs_abs_abs_abs_abs_abs_abs_abs_abs_abs_abs_abs_abs_abs_abs'
p155
I7402530
sg12
g5
sg13
g5
sg14
g5
sg15
g5
sg16
I53775
sg17
g5
sg18
I200000
sg19
I1008941
sg20
g5
sg21
g5
sg22
I407503
sg23
I182245
sg24
I2692324
sg25
I601438
ssS'MENDELSOHN JOHN'
p156
(dp157
g3
g5
sg4
g5
sg6
I148
sg7
I00
sg8
I-103750
sg9
g5
sg11
g5
sS'total_compensation_abs_abs_abs_abs_abs_abs_abs_abs_abs_abs_abs_abs_abs_abs_abs_abs_abs_abs_abs_abs_abs_abs_abs_abs_abs_abs_abs_abs_abs_abs_abs_abs_abs_abs_abs_abs'
p158
I207796
sg12
g5
sg13
g5
sg14
g5
sg15
g5
sg16
g5
sg17
I103750
sg18
g5
sg19
g5
sg20
g5
sg21
g5
sg22
g5
sg23
g5
sg24
I148
sg25
g5
ssS'HICKERSON GARY J'
p159
(dp160
g3
I1320
sg4
g5
sg6
I98849
sg7
I00
sS'total_compensation_abs_abs_abs_abs_abs_abs_abs_abs_abs_abs_abs_abs_abs_abs_abs_abs_abs_abs_abs_abs_abs_abs_abs_abs_abs_abs_abs_abs_abs_abs_abs_abs_abs_abs_abs_abs_abs'
p161
I5045784
sg8
g5
sg9
S'gary.hickerson@enron.com'
p162
sg11
I69223
sg12
g5
sg13
I900
sg14
g5
sg15
I27
sg16
I1936
sg17
g5
sg18
I1700000
sg19
I441096
sg20
I40
sg21
I1
sg22
I441096
sg23
I211788
sg24
I2081796
sg25
g5
ssS'CLINE KENNETH W'
p163
(dp164
g3
g5
sg4
g5
sg6
g5
sg7
I00
sg8
g5
sg9
g5
sg11
g5
sg12
I-472568
sS'total_compensation_abs_abs_abs_abs_abs_abs_abs_abs_abs_abs_abs_abs_abs_abs_abs_abs_abs_abs_abs_abs_abs_abs_abs_abs_abs_abs_abs_abs_abs_abs_abs_abs_abs_abs_abs_abs_abs_abs'
p165
I1324172
sg13
g5
sg14
g5
sg15
g5
sg16
g5
sg17
g5
sg18
g5
sg19
I189518
sg20
g5
sg21
g5
sg22
I662086
sg23
g5
sg24
g5
sg25
g5
ssS'LEWIS RICHARD'
p166
(dp167
S'total_compensation_abs_abs_abs_abs_abs_abs_abs_abs_abs_abs_abs_abs_abs_abs_abs_abs_abs_abs_abs_abs_abs_abs_abs_abs_abs_abs_abs_abs_abs_abs_abs_abs_abs_abs_abs_abs_abs_abs_abs'
p168
I1700954
sg3
I952
sg4
g5
sg6
g5
sg7
I00
sg8
g5
sg9
S'richard.lewis@enron.com'
p169
sg11
g5
sg12
g5
sg13
I739
sg14
g5
sg15
I26
sg16
g5
sg17
g5
sg18
g5
sg19
I850477
sg20
I10
sg21
I0
sg22
g5
sg23
g5
sg24
g5
sg25
I850477
ssS'HAYES ROBERT E'
p170
(dp171
g3
I504
sg4
I7961
sg6
g5
sg7
I00
sg8
g5
sg9
S'robert.hayes@enron.com'
p172
sg11
g5
sS'total_compensation_abs_abs_abs_abs_abs_abs_abs_abs_abs_abs_abs_abs_abs_abs_abs_abs_abs_abs_abs_abs_abs_abs_abs_abs_abs_abs_abs_abs_abs_abs_abs_abs_abs_abs_abs_abs_abs_abs_abs_abs'
p173
I318758
sg12
g5
sg13
I50
sg14
g5
sg15
I12
sg16
g5
sg17
g5
sg18
g5
sg19
I151418
sg20
I16
sg21
I0
sg22
I151418
sg23
g5
sg24
I7961
sg25
g5
ssS'MCCARTY DANNY J'
p174
(dp175
g3
I1433
sg4
g5
sS'total_compensation_abs_abs_abs_abs_abs_abs_abs_abs_abs_abs_abs_abs_abs_abs_abs_abs_abs_abs_abs_abs_abs_abs_abs_abs_abs_abs_abs_abs_abs_abs_abs_abs_abs_abs_abs_abs_abs_abs_abs_abs_abs'
p176
I1517862
sg6
g5
sg7
I00
sg8
g5
sg9
S'danny.mccarty@enron.com'
p177
sg11
g5
sg12
g5
sg13
I508
sg14
g5
sg15
I215
sg16
g5
sg17
g5
sg18
g5
sg19
I758931
sg20
I25
sg21
I2
sg22
I94556
sg23
g5
sg24
g5
sg25
I664375
ssS'KOPPER MICHAEL J'
p178
(dp179
g3
g5
sg4
g5
sg6
I118134
sg7
I01
sg8
g5
sg9
S'michael.kopper@enron.com'
p180
sg11
I602671
sg12
g5
sg13
g5
sg14
g5
sg15
g5
sg16
I907502
sg17
g5
sg18
I800000
sg19
I985032
sg20
g5
sg21
g5
sg22
I985032
sg23
I224305
sg24
I2652612
sg25
g5
sS'total_compensation_abs_abs_abs_abs_abs_abs_abs_abs_abs_abs_abs_abs_abs_abs_abs_abs_abs_abs_abs_abs_abs_abs_abs_abs_abs_abs_abs_abs_abs_abs_abs_abs_abs_abs_abs_abs_abs_abs_abs_abs_abs_abs'
p181
I7275288
ssS'LEFF DANIEL P'
p182
(dp183
g3
I2822
sg4
g5
sg6
g5
sg7
I00
sg8
g5
sg9
S'dan.leff@enron.com'
p184
sg11
I1387399
sg12
g5
sg13
I2672
sg14
g5
sg15
I63
sg16
I3083
sS'total_compensation_abs_abs_abs_abs_abs_abs_abs_abs_abs_abs_abs_abs_abs_abs_abs_abs_abs_abs_abs_abs_abs_abs_abs_abs_abs_abs_abs_abs_abs_abs_abs_abs_abs_abs_abs_abs_abs_abs_abs_abs_abs_abs_abs'
p185
I6049512
sg17
g5
sg18
I1000000
sg19
I360528
sg20
I67
sg21
I14
sg22
I360528
sg23
I273746
sg24
I2664228
sg25
g5
ssS'LAVORATO JOHN J'
p186
(dp187
g3
I7259
sg4
g5
sg6
I49537
sg7
I00
sg8
g5
sg9
S'john.lavorato@enron.com'
p188
sg11
I2035380
sS'total_compensation_abs_abs_abs_abs_abs_abs_abs_abs_abs_abs_abs_abs_abs_abs_abs_abs_abs_abs_abs_abs_abs_abs_abs_abs_abs_abs_abs_abs_abs_abs_abs_abs_abs_abs_abs_abs_abs_abs_abs_abs_abs_abs_abs_abs'
p189
I31185802
sg12
g5
sg13
I3962
sg14
g5
sg15
I2585
sg16
I1552
sg17
g5
sg18
I8000000
sg19
I5167144
sg20
I528
sg21
I411
sg22
I1008149
sg23
I339288
sg24
I10425757
sg25
I4158995
ssS'BERBERIAN DAVID'
p190
(dp191
g3
g5
sg4
g5
sg6
I11892
sg7
I00
sg8
g5
sg9
S'david.berberian@enron.com'
p192
sg11
g5
sg12
g5
sg13
g5
sg14
g5
sg15
g5
sg16
g5
sS'total_compensation_abs_abs_abs_abs_abs_abs_abs_abs_abs_abs_abs_abs_abs_abs_abs_abs_abs_abs_abs_abs_abs_abs_abs_abs_abs_abs_abs_abs_abs_abs_abs_abs_abs_abs_abs_abs_abs_abs_abs_abs_abs_abs_abs_abs_abs'
p193
I5444180
sg17
g5
sg18
g5
sg19
I2493616
sg20
g5
sg21
g5
sg22
I869220
sg23
I216582
sg24
I228474
sg25
I1624396
ssS'DETMERING TIMOTHY J'
p194
(dp195
g3
g5
sg4
I875307
sg6
I52255
sg7
I00
sg8
I-775241
sg9
S'timothy.detmering@enron.com'
p196
sg11
I415657
sg12
I-315068
sg13
g5
sg14
g5
sg15
g5
sg16
I1105
sg17
g5
sg18
I425000
sg19
I2027865
sg20
g5
sg21
g5
sg22
I315068
sS'total_compensation_abs_abs_abs_abs_abs_abs_abs_abs_abs_abs_abs_abs_abs_abs_abs_abs_abs_abs_abs_abs_abs_abs_abs_abs_abs_abs_abs_abs_abs_abs_abs_abs_abs_abs_abs_abs_abs_abs_abs_abs_abs_abs_abs_abs_abs_abs'
p197
I8645514
sg23
I210500
sg24
I1204583
sg25
I2027865
ssS'WAKEHAM JOHN'
p198
(dp199
g3
g5
sg4
g5
sg6
I103773
sg7
I00
sg8
g5
sg9
g5
sg11
g5
sg12
g5
sg13
g5
sS'total_compensation_abs_abs_abs_abs_abs_abs_abs_abs_abs_abs_abs_abs_abs_abs_abs_abs_abs_abs_abs_abs_abs_abs_abs_abs_abs_abs_abs_abs_abs_abs_abs_abs_abs_abs_abs_abs_abs_abs_abs_abs_abs_abs_abs_abs_abs_abs_abs'
p200
I426142
sg14
g5
sg15
g5
sg16
g5
sg17
I109298
sg18
g5
sg19
g5
sg20
g5
sg21
g5
sg22
g5
sg23
g5
sg24
I213071
sg25
g5
ssS'POWERS WILLIAM'
p201
(dp202
g3
I653
sg4
g5
sg6
g5
sg7
I00
sg8
I-17500
sg9
S'ken.powers@enron.com'
p203
sg11
g5
sg12
g5
sg13
I12
sg14
g5
sg15
I26
sg16
g5
sS'total_compensation_abs_abs_abs_abs_abs_abs_abs_abs_abs_abs_abs_abs_abs_abs_abs_abs_abs_abs_abs_abs_abs_abs_abs_abs_abs_abs_abs_abs_abs_abs_abs_abs_abs_abs_abs_abs_abs_abs_abs_abs_abs_abs_abs_abs_abs_abs_abs_abs'
p204
I35000
sg17
I17500
sg18
g5
sg19
g5
sg20
I0
sg21
I0
sg22
g5
sg23
g5
sg24
g5
sg25
g5
ssS'GOLD JOSEPH'
p205
(dp206
g3
g5
sg4
g5
sg6
g5
sg7
I00
sg8
g5
sS'total_compensation_abs_abs_abs_abs_abs_abs_abs_abs_abs_abs_abs_abs_abs_abs_abs_abs_abs_abs_abs_abs_abs_abs_abs_abs_abs_abs_abs_abs_abs_abs_abs_abs_abs_abs_abs_abs_abs_abs_abs_abs_abs_abs_abs_abs_abs_abs_abs_abs_abs'
p207
I6049168
sg11
I304805
sg9
S'joe.gold@enron.com'
p208
sg12
g5
sg13
g5
sg14
g5
sg15
g5
sg16
I819288
sg17
g5
sg18
I750000
sg19
I877611
sg20
g5
sg21
g5
sg22
I441096
sg23
I272880
sg24
I2146973
sg25
I436515
ssS'BANNANTINE JAMES M'
p209
(dp210
g3
I566
sg4
g5
sg6
I56301
sg7
I00
sg8
I-5104
sg9
S'james.bannantine@enron.com'
p211
sg11
g5
sS'total_compensation_abs_abs_abs_abs_abs_abs_abs_abs_abs_abs_abs_abs_abs_abs_abs_abs_abs_abs_abs_abs_abs_abs_abs_abs_abs_abs_abs_abs_abs_abs_abs_abs_abs_abs_abs_abs_abs_abs_abs_abs_abs_abs_abs_abs_abs_abs_abs_abs_abs_abs'
p212
I13450020
sg12
I-560222
sg13
I465
sg14
g5
sg15
I29
sg16
I864523
sg17
g5
sg18
g5
sg19
I5243487
sg20
I39
sg21
I0
sg22
I1757552
sg23
I477
sg24
I916197
sg25
I4046157
ssS'DUNCAN JOHN H'
p213
(dp214
g3
g5
sg4
g5
sS'total_compensation_abs_abs_abs_abs_abs_abs_abs_abs_abs_abs_abs_abs_abs_abs_abs_abs_abs_abs_abs_abs_abs_abs_abs_abs_abs_abs_abs_abs_abs_abs_abs_abs_abs_abs_abs_abs_abs_abs_abs_abs_abs_abs_abs_abs_abs_abs_abs_abs_abs_abs_abs'
p215
I948484
sg6
g5
sg7
I00
sg8
I-25000
sg9
g5
sg11
g5
sg12
g5
sg13
g5
sg14
g5
sg15
g5
sg16
g5
sg17
I102492
sg18
g5
sg19
I371750
sg20
g5
sg21
g5
sg22
g5
sg23
g5
sg24
I77492
sg25
I371750
ssS'SHAPIRO RICHARD S'
p216
(dp217
g3
I15149
sg4
g5
sg6
I137767
sg7
I00
sg8
g5
sg9
S'richard.shapiro@enron.com'
p218
sg11
g5
sg12
g5
sg13
I4527
sg14
g5
sg15
I1215
sg16
I705
sg17
g5
sg18
I650000
sg19
I987001
sg20
I74
sS'total_compensation_abs_abs_abs_abs_abs_abs_abs_abs_abs_abs_abs_abs_abs_abs_abs_abs_abs_abs_abs_abs_abs_abs_abs_abs_abs_abs_abs_abs_abs_abs_abs_abs_abs_abs_abs_abs_abs_abs_abs_abs_abs_abs_abs_abs_abs_abs_abs_abs_abs_abs_abs_abs'
p219
I4089098
sg21
I65
sg22
I379164
sg23
I269076
sg24
I1057548
sg25
I607837
ssS'SHERRIFF JOHN R'
p220
(dp221
g3
I3187
sg4
g5
sg6
g5
sg7
I00
sg8
g5
sg9
S'john.sherriff@enron.com'
p222
sg11
I554422
sS'total_compensation_abs_abs_abs_abs_abs_abs_abs_abs_abs_abs_abs_abs_abs_abs_abs_abs_abs_abs_abs_abs_abs_abs_abs_abs_abs_abs_abs_abs_abs_abs_abs_abs_abs_abs_abs_abs_abs_abs_abs_abs_abs_abs_abs_abs_abs_abs_abs_abs_abs_abs_abs_abs_abs'
p223
I14928740
sg12
g5
sg13
I2103
sg14
g5
sg15
I92
sg16
I1852186
sg17
g5
sg18
I1500000
sg19
I3128982
sg20
I28
sg21
I23
sg22
I1293424
sg23
I428780
sg24
I4335388
sg25
I1835558
ssS'SHELBY REX'
p224
(dp225
g3
I225
sg4
g5
sS'total_compensation_abs_abs_abs_abs_abs_abs_abs_abs_abs_abs_abs_abs_abs_abs_abs_abs_abs_abs_abs_abs_abs_abs_abs_abs_abs_abs_abs_abs_abs_abs_abs_abs_abs_abs_abs_abs_abs_abs_abs_abs_abs_abs_abs_abs_abs_abs_abs_abs_abs_abs_abs_abs_abs_abs'
p226
I9003336
sg6
I22884
sg7
I01
sg8
I-4167
sg9
S'rex.shelby@enron.com'
p227
sg11
g5
sg12
g5
sg13
I91
sg14
g5
sg15
I39
sg16
I1573324
sg17
g5
sg18
I200000
sg19
I2493616
sg20
I13
sg21
I14
sg22
I869220
sg23
I211844
sg24
I2003885
sg25
I1624396
ssS'LEMAISTRE CHARLES'
p228
(dp229
g3
g5
sg4
g5
sg6
g5
sg7
I00
sg8
I-25000
sg9
g5
sg11
g5
sS'total_compensation_abs_abs_abs_abs_abs_abs_abs_abs_abs_abs_abs_abs_abs_abs_abs_abs_abs_abs_abs_abs_abs_abs_abs_abs_abs_abs_abs_abs_abs_abs_abs_abs_abs_abs_abs_abs_abs_abs_abs_abs_abs_abs_abs_abs_abs_abs_abs_abs_abs_abs_abs_abs_abs_abs_abs'
p230
I1050740
sg12
g5
sg13
g5
sg14
g5
sg15
g5
sg16
g5
sg17
I112492
sg18
g5
sg19
I412878
sg20
g5
sg21
g5
sg22
g5
sg23
g5
sg24
I87492
sg25
I412878
ssS'DEFFNER JOSEPH M'
p231
(dp232
g3
I714
sg4
g5
sS'total_compensation_abs_abs_abs_abs_abs_abs_abs_abs_abs_abs_abs_abs_abs_abs_abs_abs_abs_abs_abs_abs_abs_abs_abs_abs_abs_abs_abs_abs_abs_abs_abs_abs_abs_abs_abs_abs_abs_abs_abs_abs_abs_abs_abs_abs_abs_abs_abs_abs_abs_abs_abs_abs_abs_abs_abs_abs'
p233
I2735720
sg6
I41626
sg7
I00
sg8
g5
sg9
S'joseph.deffner@enron.com'
p234
sg11
I335349
sg12
g5
sg13
I552
sg14
g5
sg15
I74
sg16
I25553
sg17
g5
sg18
I600000
sg19
I159211
sg20
I115
sg21
I4
sg22
I141833
sg23
I206121
sg24
I1208649
sg25
I17378
ssS'KISHKILL JOSEPH G'
p235
(dp236
g3
g5
sg4
g5
sg6
I116335
sg7
I00
sg8
I-51042
sg9
S'joe.kishkill@enron.com'
p237
sg11
g5
sg12
g5
sS'total_compensation_abs_abs_abs_abs_abs_abs_abs_abs_abs_abs_abs_abs_abs_abs_abs_abs_abs_abs_abs_abs_abs_abs_abs_abs_abs_abs_abs_abs_abs_abs_abs_abs_abs_abs_abs_abs_abs_abs_abs_abs_abs_abs_abs_abs_abs_abs_abs_abs_abs_abs_abs_abs_abs_abs_abs_abs_abs'
p238
I3580568
sg13
g5
sg14
g5
sg15
g5
sg16
I465357
sg17
g5
sg18
g5
sg19
I1034346
sg20
g5
sg21
g5
sg22
I1034346
sg23
I174246
sg24
I704896
sg25
g5
ssS'WHALLEY LAWRENCE G'
p239
(dp240
g3
I6019
sg4
g5
sg6
I57838
sg7
I00
sg8
g5
sg9
S'greg.whalley@enron.com'
p241
sg11
I808346
sg12
g5
sg13
I3920
sg14
g5
sg15
I556
sg16
I301026
sS'total_compensation_abs_abs_abs_abs_abs_abs_abs_abs_abs_abs_abs_abs_abs_abs_abs_abs_abs_abs_abs_abs_abs_abs_abs_abs_abs_abs_abs_abs_abs_abs_abs_abs_abs_abs_abs_abs_abs_abs_abs_abs_abs_abs_abs_abs_abs_abs_abs_abs_abs_abs_abs_abs_abs_abs_abs_abs_abs_abs'
p242
I21513422
sg17
g5
sg18
I3000000
sg19
I6079137
sg20
I186
sg21
I24
sg22
I2796177
sg23
I510364
sg24
I4677574
sg25
I3282960
ssS'MCCONNELL MICHAEL S'
p243
(dp244
g3
I3329
sg4
g5
sg6
I81364
sg7
I00
sg8
g5
sg9
S'mike.mcconnell@enron.com'
p245
sg11
I554422
sg12
g5
sg13
I2189
sg14
g5
sg15
I2742
sg16
I540
sg17
g5
sg18
I1100000
sg19
I3101279
sg20
I92
sg21
I194
sS'total_compensation_abs_abs_abs_abs_abs_abs_abs_abs_abs_abs_abs_abs_abs_abs_abs_abs_abs_abs_abs_abs_abs_abs_abs_abs_abs_abs_abs_abs_abs_abs_abs_abs_abs_abs_abs_abs_abs_abs_abs_abs_abs_abs_abs_abs_abs_abs_abs_abs_abs_abs_abs_abs_abs_abs_abs_abs_abs_abs_abs'
p246
I10405286
sg22
I1478269
sg23
I365038
sg24
I2101364
sg25
I1623010
ssS'PIRO JIM'
p247
(dp248
g3
I58
sg4
g5
sg6
g5
sg7
I00
sg8
g5
sg9
S'jim.piro@enron.com'
p249
sg11
g5
sg12
g5
sg13
I3
sg14
g5
sg15
I16
sg16
g5
sg17
g5
sS'total_compensation_abs_abs_abs_abs_abs_abs_abs_abs_abs_abs_abs_abs_abs_abs_abs_abs_abs_abs_abs_abs_abs_abs_abs_abs_abs_abs_abs_abs_abs_abs_abs_abs_abs_abs_abs_abs_abs_abs_abs_abs_abs_abs_abs_abs_abs_abs_abs_abs_abs_abs_abs_abs_abs_abs_abs_abs_abs_abs_abs_abs'
p250
I94608
sg18
g5
sg19
I47304
sg20
I0
sg21
I1
sg22
I47304
sg23
g5
sg24
g5
sg25
g5
ssS'DELAINEY DAVID W'
p251
(dp252
g3
I3093
sg4
g5
sg6
I86174
sS'total_compensation_abs_abs_abs_abs_abs_abs_abs_abs_abs_abs_abs_abs_abs_abs_abs_abs_abs_abs_abs_abs_abs_abs_abs_abs_abs_abs_abs_abs_abs_abs_abs_abs_abs_abs_abs_abs_abs_abs_abs_abs_abs_abs_abs_abs_abs_abs_abs_abs_abs_abs_abs_abs_abs_abs_abs_abs_abs_abs_abs_abs_abs'
p253
I16724480
sg7
I01
sg8
g5
sg9
S'david.delainey@enron.com'
p254
sg11
I1294981
sg12
g5
sg13
I2097
sg14
g5
sg15
I3069
sg16
I1661
sg17
g5
sg18
I3000000
sg19
I3614261
sg20
I66
sg21
I609
sg22
I1323148
sg23
I365163
sg24
I4747979
sg25
I2291113
ssS'SULLIVAN-SHAKLOVITZ COLLEEN'
p255
(dp256
g3
g5
sg4
I181993
sg6
g5
sg7
I00
sg8
g5
sg9
g5
sg11
I554422
sg12
g5
sg13
g5
sg14
g5
sg15
g5
sg16
I162
sg17
g5
sg18
I100000
sg19
I1362375
sg20
g5
sg21
g5
sg22
g5
sg23
I162779
sg24
I999356
sg25
I1362375
sS'total_compensation_abs_abs_abs_abs_abs_abs_abs_abs_abs_abs_abs_abs_abs_abs_abs_abs_abs_abs_abs_abs_abs_abs_abs_abs_abs_abs_abs_abs_abs_abs_abs_abs_abs_abs_abs_abs_abs_abs_abs_abs_abs_abs_abs_abs_abs_abs_abs_abs_abs_abs_abs_abs_abs_abs_abs_abs_abs_abs_abs_abs_abs_abs'
p257
I4723462
ssS'WROBEL BRUCE'
p258
(dp259
g3
g5
sg4
g5
sg6
g5
sS'total_compensation_abs_abs_abs_abs_abs_abs_abs_abs_abs_abs_abs_abs_abs_abs_abs_abs_abs_abs_abs_abs_abs_abs_abs_abs_abs_abs_abs_abs_abs_abs_abs_abs_abs_abs_abs_abs_abs_abs_abs_abs_abs_abs_abs_abs_abs_abs_abs_abs_abs_abs_abs_abs_abs_abs_abs_abs_abs_abs_abs_abs_abs_abs_abs'
p260
I278260
sg7
I00
sg8
g5
sg9
g5
sg11
g5
sg12
g5
sg13
g5
sg14
g5
sg15
g5
sg16
g5
sg17
g5
sg18
g5
sg19
I139130
sg20
g5
sg21
g5
sg22
g5
sg23
g5
sg24
g5
sg25
I139130
ssS'LINDHOLM TOD A'
p261
(dp262
g3
g5
sg4
I204075
sg6
I57727
sg7
I00
sg8
g5
sg9
S'tod.lindholm@enron.com'
p263
sg11
I175000
sg12
g5
sg13
g5
sg14
g5
sg15
g5
sg16
I2630
sg17
g5
sg18
I200000
sg19
I3064208
sg20
g5
sg21
g5
sS'total_compensation_abs_abs_abs_abs_abs_abs_abs_abs_abs_abs_abs_abs_abs_abs_abs_abs_abs_abs_abs_abs_abs_abs_abs_abs_abs_abs_abs_abs_abs_abs_abs_abs_abs_abs_abs_abs_abs_abs_abs_abs_abs_abs_abs_abs_abs_abs_abs_abs_abs_abs_abs_abs_abs_abs_abs_abs_abs_abs_abs_abs_abs_abs_abs_abs'
p264
I7880194
sg22
I514847
sg23
I236457
sg24
I875889
sg25
I2549361
ssS'MEYER JEROME J'
p265
(dp266
g3
g5
sg4
g5
sg6
I2151
sg7
I00
sg8
I-38346
sg9
g5
sg11
g5
sg12
g5
sg13
g5
sg14
g5
sg15
g5
sg16
g5
sg17
I38346
sg18
g5
sg19
g5
sg20
g5
sg21
g5
sg22
g5
sg23
g5
sg24
I2151
sg25
g5
sS'total_compensation_abs_abs_abs_abs_abs_abs_abs_abs_abs_abs_abs_abs_abs_abs_abs_abs_abs_abs_abs_abs_abs_abs_abs_abs_abs_abs_abs_abs_abs_abs_abs_abs_abs_abs_abs_abs_abs_abs_abs_abs_abs_abs_abs_abs_abs_abs_abs_abs_abs_abs_abs_abs_abs_abs_abs_abs_abs_abs_abs_abs_abs_abs_abs_abs_abs'
p267
I80994
ssS'LAY KENNETH L'
p268
(dp269
g3
I4273
sg4
I202911
sg6
I99832
sg7
I01
sg8
I-300000
sg9
S'kenneth.lay@enron.com'
p270
sg11
I3600000
sg12
g5
sg13
I2411
sg14
I81525000
sg15
I36
sg16
I10359729
sg17
g5
sS'total_compensation_abs_abs_abs_abs_abs_abs_abs_abs_abs_abs_abs_abs_abs_abs_abs_abs_abs_abs_abs_abs_abs_abs_abs_abs_abs_abs_abs_abs_abs_abs_abs_abs_abs_abs_abs_abs_abs_abs_abs_abs_abs_abs_abs_abs_abs_abs_abs_abs_abs_abs_abs_abs_abs_abs_abs_abs_abs_abs_abs_abs_abs_abs_abs_abs_abs_abs'
p271
I305939742
sg18
I7000000
sg19
I49110078
sg20
I123
sg21
I16
sg22
I14761694
sg23
I1072321
sg24
I103559793
sg25
I34348384
ssS'BUTTS ROBERT H'
p272
(dp273
g3
g5
sg4
g5
sg6
I9410
sg7
I00
sg8
I-75000
sg9
S'bob.butts@enron.com'
p274
sg11
I175000
sg12
g5
sg13
g5
sg14
g5
sg15
g5
sg16
I150656
sg17
g5
sg18
I750000
sg19
I417619
sg20
g5
sg21
g5
sg22
I417619
sg23
I261516
sg24
I1271582
sS'total_compensation_abs_abs_abs_abs_abs_abs_abs_abs_abs_abs_abs_abs_abs_abs_abs_abs_abs_abs_abs_abs_abs_abs_abs_abs_abs_abs_abs_abs_abs_abs_abs_abs_abs_abs_abs_abs_abs_abs_abs_abs_abs_abs_abs_abs_abs_abs_abs_abs_abs_abs_abs_abs_abs_abs_abs_abs_abs_abs_abs_abs_abs_abs_abs_abs_abs_abs_abs'
p275
I3528402
sg25
g5
ssS'OLSON CINDY K'
p276
(dp277
g3
I1184
sg4
I77716
sg6
I63791
sg7
I00
sg8
g5
sg9
S'cindy.olson@enron.com'
p278
sg11
I100000
sS'total_compensation_abs_abs_abs_abs_abs_abs_abs_abs_abs_abs_abs_abs_abs_abs_abs_abs_abs_abs_abs_abs_abs_abs_abs_abs_abs_abs_abs_abs_abs_abs_abs_abs_abs_abs_abs_abs_abs_abs_abs_abs_abs_abs_abs_abs_abs_abs_abs_abs_abs_abs_abs_abs_abs_abs_abs_abs_abs_abs_abs_abs_abs_abs_abs_abs_abs_abs_abs_abs'
p279
I7856640
sg12
g5
sg13
I856
sg14
g5
sg15
I52
sg16
I972
sg17
g5
sg18
I750000
sg19
I2606763
sg20
I20
sg21
I15
sg22
I969729
sg23
I329078
sg24
I1321557
sg25
I1637034
ssS'MCDONALD REBECCA'
p280
(dp281
g3
I894
sg4
g5
sg6
g5
sg7
I00
sg8
g5
sg9
S'rebecca.mcdonald@enron.com'
p282
sg11
g5
sg12
g5
sg13
I720
sg14
g5
sg15
I13
sg16
g5
sg17
g5
sS'total_compensation_abs_abs_abs_abs_abs_abs_abs_abs_abs_abs_abs_abs_abs_abs_abs_abs_abs_abs_abs_abs_abs_abs_abs_abs_abs_abs_abs_abs_abs_abs_abs_abs_abs_abs_abs_abs_abs_abs_abs_abs_abs_abs_abs_abs_abs_abs_abs_abs_abs_abs_abs_abs_abs_abs_abs_abs_abs_abs_abs_abs_abs_abs_abs_abs_abs_abs_abs_abs_abs'
p283
I3382732
sg18
g5
sg19
I1691366
sg20
I54
sg21
I1
sg22
I934065
sg23
g5
sg24
g5
sg25
I757301
ssS'CUMBERLAND MICHAEL S'
p284
(dp285
g3
g5
sg4
g5
sg6
I22344
sg7
I00
sg8
g5
sg9
g5
sg11
I275000
sg12
g5
sg13
g5
sg14
g5
sg15
g5
sg16
I713
sg17
g5
sg18
I325000
sg19
I207940
sg20
g5
sg21
g5
sg22
I207940
sg23
I184899
sg24
I807956
sS'total_compensation_abs_abs_abs_abs_abs_abs_abs_abs_abs_abs_abs_abs_abs_abs_abs_abs_abs_abs_abs_abs_abs_abs_abs_abs_abs_abs_abs_abs_abs_abs_abs_abs_abs_abs_abs_abs_abs_abs_abs_abs_abs_abs_abs_abs_abs_abs_abs_abs_abs_abs_abs_abs_abs_abs_abs_abs_abs_abs_abs_abs_abs_abs_abs_abs_abs_abs_abs_abs_abs_abs'
p286
I2031792
sg25
g5
ssS'GAHN ROBERT S'
p287
(dp288
g3
g5
sg4
I73122
sg6
I50080
sg7
I00
sg8
I-1042
sg9
g5
sg11
g5
sg12
g5
sg13
g5
sg14
g5
sg15
g5
sg16
I76547
sg17
g5
sS'total_compensation_abs_abs_abs_abs_abs_abs_abs_abs_abs_abs_abs_abs_abs_abs_abs_abs_abs_abs_abs_abs_abs_abs_abs_abs_abs_abs_abs_abs_abs_abs_abs_abs_abs_abs_abs_abs_abs_abs_abs_abs_abs_abs_abs_abs_abs_abs_abs_abs_abs_abs_abs_abs_abs_abs_abs_abs_abs_abs_abs_abs_abs_abs_abs_abs_abs_abs_abs_abs_abs_abs_abs'
p289
I2440468
sg18
I509870
sg19
I318607
sg20
g5
sg21
g5
sg22
I235370
sg23
I192008
sg24
I900585
sg25
I83237
ssS'MCCLELLAN GEORGE'
p290
(dp291
g3
I1744
sg4
g5
sg6
I228763
sg7
I00
sg8
I-125000
sg9
S'george.mcclellan@enron.com'
p292
sg11
g5
sg12
g5
sg13
I1469
sg14
g5
sg15
I49
sg16
I51587
sg17
g5
sg18
I900000
sg19
I947861
sg20
I52
sg21
I0
sg22
I441096
sg23
I263413
sg24
I1318763
sS'total_compensation_abs_abs_abs_abs_abs_abs_abs_abs_abs_abs_abs_abs_abs_abs_abs_abs_abs_abs_abs_abs_abs_abs_abs_abs_abs_abs_abs_abs_abs_abs_abs_abs_abs_abs_abs_abs_abs_abs_abs_abs_abs_abs_abs_abs_abs_abs_abs_abs_abs_abs_abs_abs_abs_abs_abs_abs_abs_abs_abs_abs_abs_abs_abs_abs_abs_abs_abs_abs_abs_abs_abs_abs'
p293
I4783248
sg25
I506765
ssS'HERMANN ROBERT J'
p294
(dp295
g3
g5
sg4
g5
sg6
I48357
sg7
I00
sg8
I-280000
sg9
S'robert.hermann@enron.com'
p296
sg11
I150000
sg12
g5
sg13
g5
sg14
g5
sg15
g5
sg16
I416441
sg17
g5
sg18
I700000
sS'total_compensation_abs_abs_abs_abs_abs_abs_abs_abs_abs_abs_abs_abs_abs_abs_abs_abs_abs_abs_abs_abs_abs_abs_abs_abs_abs_abs_abs_abs_abs_abs_abs_abs_abs_abs_abs_abs_abs_abs_abs_abs_abs_abs_abs_abs_abs_abs_abs_abs_abs_abs_abs_abs_abs_abs_abs_abs_abs_abs_abs_abs_abs_abs_abs_abs_abs_abs_abs_abs_abs_abs_abs_abs_abs'
p297
I4491186
sg19
I668132
sg20
g5
sg21
g5
sg22
I480632
sg23
I262663
sg24
I1297461
sg25
I187500
ssS'SCRIMSHAW MATTHEW'
p298
(dp299
g3
g5
sg4
g5
sg6
g5
sS'total_compensation_abs_abs_abs_abs_abs_abs_abs_abs_abs_abs_abs_abs_abs_abs_abs_abs_abs_abs_abs_abs_abs_abs_abs_abs_abs_abs_abs_abs_abs_abs_abs_abs_abs_abs_abs_abs_abs_abs_abs_abs_abs_abs_abs_abs_abs_abs_abs_abs_abs_abs_abs_abs_abs_abs_abs_abs_abs_abs_abs_abs_abs_abs_abs_abs_abs_abs_abs_abs_abs_abs_abs_abs_abs_abs'
p300
I1519114
sg7
I00
sg8
g5
sg9
S'matthew.scrimshaw@enron.com'
p301
sg11
g5
sg12
g5
sg13
g5
sg14
g5
sg15
g5
sg16
g5
sg17
g5
sg18
g5
sg19
I759557
sg20
g5
sg21
g5
sg22
g5
sg23
g5
sg24
g5
sg25
I759557
ssS'GATHMANN WILLIAM D'
p302
(dp303
g3
g5
sg4
g5
sg6
g5
sg7
I00
sg8
g5
sg9
g5
sg11
g5
sg12
I-72419
sg13
g5
sg14
g5
sg15
g5
sg16
g5
sg17
g5
sg18
g5
sg19
I1945360
sg20
g5
sg21
g5
sg22
I264013
sg23
g5
sg24
g5
sg25
I1753766
sS'total_compensation_abs_abs_abs_abs_abs_abs_abs_abs_abs_abs_abs_abs_abs_abs_abs_abs_abs_abs_abs_abs_abs_abs_abs_abs_abs_abs_abs_abs_abs_abs_abs_abs_abs_abs_abs_abs_abs_abs_abs_abs_abs_abs_abs_abs_abs_abs_abs_abs_abs_abs_abs_abs_abs_abs_abs_abs_abs_abs_abs_abs_abs_abs_abs_abs_abs_abs_abs_abs_abs_abs_abs_abs_abs_abs_abs'
p304
I4035558
ssS'HAEDICKE MARK E'
p305
(dp306
g3
I4009
sg4
I2157527
sg6
I76169
sg7
I00
sg8
I-934484
sg9
S'mark.haedicke@enron.com'
p307
sg11
I983346
sg12
I-329825
sg13
I1847
sg14
g5
sg15
I1941
sg16
I52382
sg17
g5
sg18
I1150000
sg19
I803094
sg20
I180
sg21
I61
sg22
I524169
sg23
I374125
sS'total_compensation_abs_abs_abs_abs_abs_abs_abs_abs_abs_abs_abs_abs_abs_abs_abs_abs_abs_abs_abs_abs_abs_abs_abs_abs_abs_abs_abs_abs_abs_abs_abs_abs_abs_abs_abs_abs_abs_abs_abs_abs_abs_abs_abs_abs_abs_abs_abs_abs_abs_abs_abs_abs_abs_abs_abs_abs_abs_abs_abs_abs_abs_abs_abs_abs_abs_abs_abs_abs_abs_abs_abs_abs_abs_abs_abs_abs'
p308
I11852936
sg24
I3859065
sg25
I608750
ssS'BOWEN JR RAYMOND M'
p309
(dp310
g3
I1858
sg4
g5
sg6
I65907
sg7
I01
sg8
I-833
sg9
S'raymond.bowen@enron.com'
p311
sg11
I974293
sg12
g5
sg13
I1593
sg14
g5
sg15
I27
sg16
I1621
sg17
g5
sg18
I1350000
sg19
I252055
sg20
I140
sg21
I15
sg22
I252055
sg23
I278601
sg24
I2669589
sg25
g5
sS'total_compensation_abs_abs_abs_abs_abs_abs_abs_abs_abs_abs_abs_abs_abs_abs_abs_abs_abs_abs_abs_abs_abs_abs_abs_abs_abs_abs_abs_abs_abs_abs_abs_abs_abs_abs_abs_abs_abs_abs_abs_abs_abs_abs_abs_abs_abs_abs_abs_abs_abs_abs_abs_abs_abs_abs_abs_abs_abs_abs_abs_abs_abs_abs_abs_abs_abs_abs_abs_abs_abs_abs_abs_abs_abs_abs_abs_abs_abs'
p312
I5844954
ssS'GILLIS JOHN'
p313
(dp314
g3
g5
sg4
g5
sg6
g5
sg7
I00
sg8
g5
sg9
g5
sS'total_compensation_abs_abs_abs_abs_abs_abs_abs_abs_abs_abs_abs_abs_abs_abs_abs_abs_abs_abs_abs_abs_abs_abs_abs_abs_abs_abs_abs_abs_abs_abs_abs_abs_abs_abs_abs_abs_abs_abs_abs_abs_abs_abs_abs_abs_abs_abs_abs_abs_abs_abs_abs_abs_abs_abs_abs_abs_abs_abs_abs_abs_abs_abs_abs_abs_abs_abs_abs_abs_abs_abs_abs_abs_abs_abs_abs_abs_abs_abs'
p315
I171282
sg12
g5
sg13
g5
sg14
g5
sg15
g5
sg16
g5
sg17
g5
sg18
g5
sg19
I85641
sg20
g5
sg21
g5
sg11
g5
sg22
I75838
sg23
g5
sg24
g5
sg25
I9803
ssS'FITZGERALD JAY L'
p316
(dp317
g3
I936
sg4
g5
sg6
I23870
sg7
I00
sg8
g5
sg9
S'jay.fitzgerald@enron.com'
p318
sg11
I556416
sg12
g5
sg13
I723
sg14
g5
sg15
I16
sg16
I285414
sg17
g5
sg18
I350000
sg19
I1621236
sg20
I1
sg21
I8
sg22
I956775
sg23
I199157
sg24
I1414857
sS'total_compensation_abs_abs_abs_abs_abs_abs_abs_abs_abs_abs_abs_abs_abs_abs_abs_abs_abs_abs_abs_abs_abs_abs_abs_abs_abs_abs_abs_abs_abs_abs_abs_abs_abs_abs_abs_abs_abs_abs_abs_abs_abs_abs_abs_abs_abs_abs_abs_abs_abs_abs_abs_abs_abs_abs_abs_abs_abs_abs_abs_abs_abs_abs_abs_abs_abs_abs_abs_abs_abs_abs_abs_abs_abs_abs_abs_abs_abs_abs_abs'
p319
I6072186
sg25
I664461
ssS'MORAN MICHAEL P'
p320
(dp321
g3
I672
sg4
g5
sg6
g5
sg7
I00
sg8
g5
sg9
S'michael.moran@enron.com'
p322
sg11
g5
sg12
g5
sg13
I127
sg14
g5
sg15
I19
sg16
g5
sg17
g5
sg18
g5
sg19
I221141
sg20
I0
sg21
I0
sg22
I161602
sg23
g5
sg24
g5
sg25
I59539
sS'total_compensation_abs_abs_abs_abs_abs_abs_abs_abs_abs_abs_abs_abs_abs_abs_abs_abs_abs_abs_abs_abs_abs_abs_abs_abs_abs_abs_abs_abs_abs_abs_abs_abs_abs_abs_abs_abs_abs_abs_abs_abs_abs_abs_abs_abs_abs_abs_abs_abs_abs_abs_abs_abs_abs_abs_abs_abs_abs_abs_abs_abs_abs_abs_abs_abs_abs_abs_abs_abs_abs_abs_abs_abs_abs_abs_abs_abs_abs_abs_abs_abs'
p323
I442282
ssS'REDMOND BRIAN L'
p324
(dp325
g3
I1671
sg4
g5
sg6
I14689
sg7
I00
sg8
g5
sg9
S'brian.redmond@enron.com'
p326
sg11
g5
sS'total_compensation_abs_abs_abs_abs_abs_abs_abs_abs_abs_abs_abs_abs_abs_abs_abs_abs_abs_abs_abs_abs_abs_abs_abs_abs_abs_abs_abs_abs_abs_abs_abs_abs_abs_abs_abs_abs_abs_abs_abs_abs_abs_abs_abs_abs_abs_abs_abs_abs_abs_abs_abs_abs_abs_abs_abs_abs_abs_abs_abs_abs_abs_abs_abs_abs_abs_abs_abs_abs_abs_abs_abs_abs_abs_abs_abs_abs_abs_abs_abs_abs_abs'
p327
I16003706
sg12
g5
sg13
I1063
sg14
g5
sg15
I221
sg16
g5
sg17
g5
sg18
g5
sg19
I7890324
sg20
I204
sg21
I49
sg22
I381285
sg23
I96840
sg24
I111529
sg25
I7509039
ssS'BAZELIDES PHILIP J'
p328
(dp329
g3
g5
sg4
I684694
sg6
g5
sg7
I00
sg8
g5
sg9
g5
sg11
I93750
sg12
g5
sg13
g5
sg14
g5
sg15
g5
sg16
I874
sg17
g5
sg18
g5
sg19
I1599641
sg20
g5
sg21
g5
sg22
g5
sg23
I80818
sS'total_compensation_abs_abs_abs_abs_abs_abs_abs_abs_abs_abs_abs_abs_abs_abs_abs_abs_abs_abs_abs_abs_abs_abs_abs_abs_abs_abs_abs_abs_abs_abs_abs_abs_abs_abs_abs_abs_abs_abs_abs_abs_abs_abs_abs_abs_abs_abs_abs_abs_abs_abs_abs_abs_abs_abs_abs_abs_abs_abs_abs_abs_abs_abs_abs_abs_abs_abs_abs_abs_abs_abs_abs_abs_abs_abs_abs_abs_abs_abs_abs_abs_abs_abs'
p330
I4919554
sg24
I860136
sg25
I1599641
ssS'BELDEN TIMOTHY N'
p331
(dp332
g3
I7991
sg4
I2144013
sg6
I17355
sg7
I01
sg8
I-2334434
sg9
S'tim.belden@enron.com'
p333
sg11
g5
sg12
g5
sg13
I5521
sg14
g5
sg15
I484
sg16
I210698
sg17
g5
sg18
I5249999
sg19
I1110705
sg20
I228
sS'total_compensation_abs_abs_abs_abs_abs_abs_abs_abs_abs_abs_abs_abs_abs_abs_abs_abs_abs_abs_abs_abs_abs_abs_abs_abs_abs_abs_abs_abs_abs_abs_abs_abs_abs_abs_abs_abs_abs_abs_abs_abs_abs_abs_abs_abs_abs_abs_abs_abs_abs_abs_abs_abs_abs_abs_abs_abs_abs_abs_abs_abs_abs_abs_abs_abs_abs_abs_abs_abs_abs_abs_abs_abs_abs_abs_abs_abs_abs_abs_abs_abs_abs_abs_abs'
p334
I17893538
sg21
I108
sg22
I157569
sg23
I213999
sg24
I5501630
sg25
I953136
ssS'DURAN WILLIAM D'
p335
(dp336
g3
I904
sg4
g5
sg6
I25785
sS'total_compensation_abs_abs_abs_abs_abs_abs_abs_abs_abs_abs_abs_abs_abs_abs_abs_abs_abs_abs_abs_abs_abs_abs_abs_abs_abs_abs_abs_abs_abs_abs_abs_abs_abs_abs_abs_abs_abs_abs_abs_abs_abs_abs_abs_abs_abs_abs_abs_abs_abs_abs_abs_abs_abs_abs_abs_abs_abs_abs_abs_abs_abs_abs_abs_abs_abs_abs_abs_abs_abs_abs_abs_abs_abs_abs_abs_abs_abs_abs_abs_abs_abs_abs_abs_abs'
p337
I7468346
sg7
I00
sg8
g5
sg9
S'w.duran@enron.com'
p338
sg11
I1105218
sg12
g5
sg13
I599
sg14
g5
sg15
I12
sg16
I1568
sg17
g5
sg18
I750000
sg19
I1640910
sg20
I106
sg21
I3
sg22
I189041
sg23
I210692
sg24
I2093263
sg25
I1451869
ssS'THORN TERENCE H'
p339
(dp340
g3
I266
sg4
I16586
sg6
I46145
sg7
I00
sg8
g5
sg9
S'terence.thorn@enron.com'
p341
sg11
I200000
sg12
g5
sg13
I73
sg14
g5
sg15
I41
sg16
I426629
sg17
g5
sg18
g5
sg19
I4817796
sg20
I0
sg21
I0
sg22
I365320
sg23
I222093
sS'total_compensation_abs_abs_abs_abs_abs_abs_abs_abs_abs_abs_abs_abs_abs_abs_abs_abs_abs_abs_abs_abs_abs_abs_abs_abs_abs_abs_abs_abs_abs_abs_abs_abs_abs_abs_abs_abs_abs_abs_abs_abs_abs_abs_abs_abs_abs_abs_abs_abs_abs_abs_abs_abs_abs_abs_abs_abs_abs_abs_abs_abs_abs_abs_abs_abs_abs_abs_abs_abs_abs_abs_abs_abs_abs_abs_abs_abs_abs_abs_abs_abs_abs_abs_abs_abs_abs'
p342
I11458498
sg24
I911453
sg25
I4452476
ssS'FASTOW ANDREW S'
p343
(dp344
g3
g5
sg4
g5
sg6
I55921
sg7
I01
sg8
I-1386055
sg9
S'andrew.fastow@enron.com'
p345
sg11
I1736055
sg12
g5
sg13
g5
sg14
g5
sg15
g5
sg16
I277464
sg17
g5
sg18
I1300000
sS'total_compensation_abs_abs_abs_abs_abs_abs_abs_abs_abs_abs_abs_abs_abs_abs_abs_abs_abs_abs_abs_abs_abs_abs_abs_abs_abs_abs_abs_abs_abs_abs_abs_abs_abs_abs_abs_abs_abs_abs_abs_abs_abs_abs_abs_abs_abs_abs_abs_abs_abs_abs_abs_abs_abs_abs_abs_abs_abs_abs_abs_abs_abs_abs_abs_abs_abs_abs_abs_abs_abs_abs_abs_abs_abs_abs_abs_abs_abs_abs_abs_abs_abs_abs_abs_abs_abs_abs'
p346
I11209100
sg19
I1794412
sg20
g5
sg21
g5
sg22
I1794412
sg23
I440698
sg24
I2424083
sg25
g5
ssS'FOY JOE'
p347
(dp348
g3
I57
sg4
I181755
sg6
g5
sg7
I00
sg8
g5
sg9
S'tracy.foy@enron.com'
p349
sg11
g5
sg12
g5
sg13
I2
sg14
g5
sg15
I13
sg16
g5
sg17
g5
sS'total_compensation_abs_abs_abs_abs_abs_abs_abs_abs_abs_abs_abs_abs_abs_abs_abs_abs_abs_abs_abs_abs_abs_abs_abs_abs_abs_abs_abs_abs_abs_abs_abs_abs_abs_abs_abs_abs_abs_abs_abs_abs_abs_abs_abs_abs_abs_abs_abs_abs_abs_abs_abs_abs_abs_abs_abs_abs_abs_abs_abs_abs_abs_abs_abs_abs_abs_abs_abs_abs_abs_abs_abs_abs_abs_abs_abs_abs_abs_abs_abs_abs_abs_abs_abs_abs_abs_abs_abs'
p350
I1050378
sg18
g5
sg19
I343434
sg20
I0
sg21
I0
sg22
g5
sg23
g5
sg24
I181755
sg25
I343434
ssS'CALGER CHRISTOPHER F'
p351
(dp352
g3
I2598
sg4
g5
sg6
I35818
sg7
I01
sg8
I-262500
sg9
S'christopher.calger@enron.com'
p353
sg11
I375304
sg12
g5
sg13
I2188
sg14
g5
sg15
I144
sg16
I486
sg17
g5
sg18
I1250000
sS'total_compensation_abs_abs_abs_abs_abs_abs_abs_abs_abs_abs_abs_abs_abs_abs_abs_abs_abs_abs_abs_abs_abs_abs_abs_abs_abs_abs_abs_abs_abs_abs_abs_abs_abs_abs_abs_abs_abs_abs_abs_abs_abs_abs_abs_abs_abs_abs_abs_abs_abs_abs_abs_abs_abs_abs_abs_abs_abs_abs_abs_abs_abs_abs_abs_abs_abs_abs_abs_abs_abs_abs_abs_abs_abs_abs_abs_abs_abs_abs_abs_abs_abs_abs_abs_abs_abs_abs_abs_abs'
p354
I4055648
sg19
I126027
sg20
I199
sg21
I25
sg22
I126027
sg23
I240189
sg24
I1639297
sg25
g5
ssS'RICE KENNETH D'
p355
(dp356
g3
I905
sg4
g5
sg6
I46950
sg7
I01
sg8
I-3504386
sg9
S'ken.rice@enron.com'
p357
sg11
I1617011
sg12
g5
sg13
I864
sg14
g5
sg15
I18
sg16
I174839
sg17
g5
sg18
I1750000
sg19
I22542539
sg20
I42
sg21
I4
sg22
I2748364
sg23
I420636
sg24
I505050
sS'total_compensation_abs_abs_abs_abs_abs_abs_abs_abs_abs_abs_abs_abs_abs_abs_abs_abs_abs_abs_abs_abs_abs_abs_abs_abs_abs_abs_abs_abs_abs_abs_abs_abs_abs_abs_abs_abs_abs_abs_abs_abs_abs_abs_abs_abs_abs_abs_abs_abs_abs_abs_abs_abs_abs_abs_abs_abs_abs_abs_abs_abs_abs_abs_abs_abs_abs_abs_abs_abs_abs_abs_abs_abs_abs_abs_abs_abs_abs_abs_abs_abs_abs_abs_abs_abs_abs_abs_abs_abs_abs'
p358
I53103950
sg25
I19794175
ssS'KAMINSKI WINCENTY J'
p359
(dp360
g3
I4607
sg4
g5
sg6
I83585
sg7
I00
sg8
g5
sg9
S'vince.kaminski@enron.com'
p361
sg11
I323466
sg12
g5
sg13
I583
sg14
g5
sg15
I14368
sg16
I4669
sg17
g5
sg18
I400000
sg19
I976037
sg20
I41
sg21
I171
sg22
I126027
sg23
I275101
sg24
I1086821
sg25
I850010
sS'total_compensation_abs_abs_abs_abs_abs_abs_abs_abs_abs_abs_abs_abs_abs_abs_abs_abs_abs_abs_abs_abs_abs_abs_abs_abs_abs_abs_abs_abs_abs_abs_abs_abs_abs_abs_abs_abs_abs_abs_abs_abs_abs_abs_abs_abs_abs_abs_abs_abs_abs_abs_abs_abs_abs_abs_abs_abs_abs_abs_abs_abs_abs_abs_abs_abs_abs_abs_abs_abs_abs_abs_abs_abs_abs_abs_abs_abs_abs_abs_abs_abs_abs_abs_abs_abs_abs_abs_abs_abs_abs_abs'
p362
I4125716
ssS'LOCKHART EUGENE E'
p363
(dp364
g3
g5
sg4
g5
sg6
g5
sg7
I00
sS'total_compensation_abs_abs_abs_abs_abs_abs_abs_abs_abs_abs_abs_abs_abs_abs_abs_abs_abs_abs_abs_abs_abs_abs_abs_abs_abs_abs_abs_abs_abs_abs_abs_abs_abs_abs_abs_abs_abs_abs_abs_abs_abs_abs_abs_abs_abs_abs_abs_abs_abs_abs_abs_abs_abs_abs_abs_abs_abs_abs_abs_abs_abs_abs_abs_abs_abs_abs_abs_abs_abs_abs_abs_abs_abs_abs_abs_abs_abs_abs_abs_abs_abs_abs_abs_abs_abs_abs_abs_abs_abs_abs_abs'
p365
I0
sg8
g5
sg9
g5
sg11
g5
sg12
g5
sg13
g5
sg14
g5
sg15
g5
sg16
g5
sg17
g5
sg18
g5
sg19
g5
sg20
g5
sg21
g5
sg22
g5
sg23
g5
sg24
g5
sg25
g5
ssS'COX DAVID'
p366
(dp367
g3
I102
sg4
g5
sS'total_compensation_abs_abs_abs_abs_abs_abs_abs_abs_abs_abs_abs_abs_abs_abs_abs_abs_abs_abs_abs_abs_abs_abs_abs_abs_abs_abs_abs_abs_abs_abs_abs_abs_abs_abs_abs_abs_abs_abs_abs_abs_abs_abs_abs_abs_abs_abs_abs_abs_abs_abs_abs_abs_abs_abs_abs_abs_abs_abs_abs_abs_abs_abs_abs_abs_abs_abs_abs_abs_abs_abs_abs_abs_abs_abs_abs_abs_abs_abs_abs_abs_abs_abs_abs_abs_abs_abs_abs_abs_abs_abs_abs_abs'
p368
I3276552
sg6
I27861
sg7
I00
sg8
I-41250
sg9
S'chip.cox@enron.com'
p369
sg11
g5
sg12
g5
sg13
I71
sg14
g5
sg15
I33
sg16
I494
sg17
g5
sg18
I800000
sg19
I495633
sg20
I0
sg21
I4
sg22
I378082
sg23
I314288
sg24
I1101393
sg25
I117551
ssS'OVERDYKE JR JERE C'
p370
(dp371
g3
g5
sg4
g5
sg6
I18834
sg7
I00
sg8
g5
sg9
S'jere.overdyke@enron.com'
p372
sg11
I135836
sg12
g5
sg13
g5
sg14
g5
sg15
g5
sg16
I176
sg17
g5
sg18
g5
sg19
I7307594
sg20
g5
sS'total_compensation_abs_abs_abs_abs_abs_abs_abs_abs_abs_abs_abs_abs_abs_abs_abs_abs_abs_abs_abs_abs_abs_abs_abs_abs_abs_abs_abs_abs_abs_abs_abs_abs_abs_abs_abs_abs_abs_abs_abs_abs_abs_abs_abs_abs_abs_abs_abs_abs_abs_abs_abs_abs_abs_abs_abs_abs_abs_abs_abs_abs_abs_abs_abs_abs_abs_abs_abs_abs_abs_abs_abs_abs_abs_abs_abs_abs_abs_abs_abs_abs_abs_abs_abs_abs_abs_abs_abs_abs_abs_abs_abs_abs_abs'
p373
I15114762
sg21
g5
sg22
I2041016
sg23
I94941
sg24
I249787
sg25
I5266578
ssS'PEREIRA PAULO V. FERRAZ'
p374
(dp375
g3
g5
sg4
g5
sg6
I27942
sg7
I00
sg8
I-101250
sg9
g5
sg11
g5
sg12
g5
sg13
g5
sg14
g5
sg15
g5
sg16
g5
sS'total_compensation_abs_abs_abs_abs_abs_abs_abs_abs_abs_abs_abs_abs_abs_abs_abs_abs_abs_abs_abs_abs_abs_abs_abs_abs_abs_abs_abs_abs_abs_abs_abs_abs_abs_abs_abs_abs_abs_abs_abs_abs_abs_abs_abs_abs_abs_abs_abs_abs_abs_abs_abs_abs_abs_abs_abs_abs_abs_abs_abs_abs_abs_abs_abs_abs_abs_abs_abs_abs_abs_abs_abs_abs_abs_abs_abs_abs_abs_abs_abs_abs_abs_abs_abs_abs_abs_abs_abs_abs_abs_abs_abs_abs_abs_abs'
p376
I258384
sg18
g5
sg19
g5
sg20
g5
sg21
g5
sg22
g5
sg23
g5
sg24
I27942
sg17
I101250
sg25
g5
ssS'STABLER FRANK'
p377
(dp378
g3
g5
sg4
g5
sg6
I16514
sg7
I00
sg8
g5
sg9
S'frank.stabler@enron.com'
p379
sg11
g5
sg12
g5
sg13
g5
sg14
g5
sg15
g5
sg16
I356071
sg20
g5
sg17
g5
sg18
I500000
sg19
I511734
sS'total_compensation_abs_abs_abs_abs_abs_abs_abs_abs_abs_abs_abs_abs_abs_abs_abs_abs_abs_abs_abs_abs_abs_abs_abs_abs_abs_abs_abs_abs_abs_abs_abs_abs_abs_abs_abs_abs_abs_abs_abs_abs_abs_abs_abs_abs_abs_abs_abs_abs_abs_abs_abs_abs_abs_abs_abs_abs_abs_abs_abs_abs_abs_abs_abs_abs_abs_abs_abs_abs_abs_abs_abs_abs_abs_abs_abs_abs_abs_abs_abs_abs_abs_abs_abs_abs_abs_abs_abs_abs_abs_abs_abs_abs_abs_abs_abs'
p380
I3247642
sg21
g5
sg22
I511734
sg23
I239502
sg24
I1112087
sg25
g5
ssS'SKILLING JEFFREY K'
p381
(dp382
g3
I3627
sg4
g5
sg6
I29336
sg7
I01
sS'total_compensation_abs_abs_abs_abs_abs_abs_abs_abs_abs_abs_abs_abs_abs_abs_abs_abs_abs_abs_abs_abs_abs_abs_abs_abs_abs_abs_abs_abs_abs_abs_abs_abs_abs_abs_abs_abs_abs_abs_abs_abs_abs_abs_abs_abs_abs_abs_abs_abs_abs_abs_abs_abs_abs_abs_abs_abs_abs_abs_abs_abs_abs_abs_abs_abs_abs_abs_abs_abs_abs_abs_abs_abs_abs_abs_abs_abs_abs_abs_abs_abs_abs_abs_abs_abs_abs_abs_abs_abs_abs_abs_abs_abs_abs_abs_abs_abs'
p383
I69552776
sg8
g5
sg9
S'jeff.skilling@enron.com'
p384
sg11
I1920000
sg12
g5
sg13
I2042
sg14
g5
sg15
I108
sg16
I22122
sg17
g5
sg18
I5600000
sg19
I26093672
sg20
I88
sg21
I30
sg22
I6843672
sg23
I1111258
sg24
I8682716
sg25
I19250000
ssS'BLAKE JR. NORMAN P'
p385
(dp386
g3
g5
sg4
g5
sg6
I1279
sg7
I00
sg8
I-113784
sg9
g5
sg11
g5
sg12
g5
sg13
g5
sg14
g5
sg15
g5
sg16
g5
sS'total_compensation_abs_abs_abs_abs_abs_abs_abs_abs_abs_abs_abs_abs_abs_abs_abs_abs_abs_abs_abs_abs_abs_abs_abs_abs_abs_abs_abs_abs_abs_abs_abs_abs_abs_abs_abs_abs_abs_abs_abs_abs_abs_abs_abs_abs_abs_abs_abs_abs_abs_abs_abs_abs_abs_abs_abs_abs_abs_abs_abs_abs_abs_abs_abs_abs_abs_abs_abs_abs_abs_abs_abs_abs_abs_abs_abs_abs_abs_abs_abs_abs_abs_abs_abs_abs_abs_abs_abs_abs_abs_abs_abs_abs_abs_abs_abs_abs_abs'
p387
I230126
sg17
I113784
sg18
g5
sg19
g5
sg20
g5
sg21
g5
sg22
g5
sg23
g5
sg24
I1279
sg25
g5
ssS'SHERRICK JEFFREY B'
p388
(dp389
g3
I613
sg4
g5
sS'total_compensation_abs_abs_abs_abs_abs_abs_abs_abs_abs_abs_abs_abs_abs_abs_abs_abs_abs_abs_abs_abs_abs_abs_abs_abs_abs_abs_abs_abs_abs_abs_abs_abs_abs_abs_abs_abs_abs_abs_abs_abs_abs_abs_abs_abs_abs_abs_abs_abs_abs_abs_abs_abs_abs_abs_abs_abs_abs_abs_abs_abs_abs_abs_abs_abs_abs_abs_abs_abs_abs_abs_abs_abs_abs_abs_abs_abs_abs_abs_abs_abs_abs_abs_abs_abs_abs_abs_abs_abs_abs_abs_abs_abs_abs_abs_abs_abs_abs_abs'
p390
I3664936
sg6
g5
sg7
I00
sg8
g5
sg9
S'jeffrey.sherrick@enron.com'
p391
sg11
g5
sg12
g5
sg13
I583
sg14
g5
sg15
I25
sg16
g5
sg17
g5
sg18
g5
sg19
I1832468
sg20
I39
sg21
I18
sg22
I405999
sg23
g5
sg24
g5
sg25
I1426469
ssS'PRENTICE JAMES'
p392
(dp393
g3
g5
sg4
I564348
sg6
g5
sg7
I00
sg8
g5
sg9
S'james.prentice@enron.com'
p394
sg11
g5
sS'total_compensation_abs_abs_abs_abs_abs_abs_abs_abs_abs_abs_abs_abs_abs_abs_abs_abs_abs_abs_abs_abs_abs_abs_abs_abs_abs_abs_abs_abs_abs_abs_abs_abs_abs_abs_abs_abs_abs_abs_abs_abs_abs_abs_abs_abs_abs_abs_abs_abs_abs_abs_abs_abs_abs_abs_abs_abs_abs_abs_abs_abs_abs_abs_abs_abs_abs_abs_abs_abs_abs_abs_abs_abs_abs_abs_abs_abs_abs_abs_abs_abs_abs_abs_abs_abs_abs_abs_abs_abs_abs_abs_abs_abs_abs_abs_abs_abs_abs_abs_abs'
p395
I3318776
sg12
g5
sg13
g5
sg14
g5
sg15
g5
sg16
g5
sg17
g5
sg18
g5
sg19
I1095040
sg20
g5
sg21
g5
sg22
I208809
sg23
g5
sg24
I564348
sg25
I886231
ssS'GRAY RODNEY'
p396
(dp397
g3
g5
sg4
I93585
sg6
g5
sg7
I00
sg8
g5
sg9
g5
sg11
I365625
sS'total_compensation_abs_abs_abs_abs_abs_abs_abs_abs_abs_abs_abs_abs_abs_abs_abs_abs_abs_abs_abs_abs_abs_abs_abs_abs_abs_abs_abs_abs_abs_abs_abs_abs_abs_abs_abs_abs_abs_abs_abs_abs_abs_abs_abs_abs_abs_abs_abs_abs_abs_abs_abs_abs_abs_abs_abs_abs_abs_abs_abs_abs_abs_abs_abs_abs_abs_abs_abs_abs_abs_abs_abs_abs_abs_abs_abs_abs_abs_abs_abs_abs_abs_abs_abs_abs_abs_abs_abs_abs_abs_abs_abs_abs_abs_abs_abs_abs_abs_abs_abs_abs'
p398
I2293316
sg12
g5
sg13
g5
sg14
g5
sg15
g5
sg16
I680833
sg17
g5
sg18
g5
sg19
g5
sg20
g5
sg21
g5
sg22
g5
sg23
I6615
sg24
I1146658
sg25
g5
ssS'PICKERING MARK R'
p399
(dp400
g3
I898
sg4
g5
sg6
I31653
sg7
I00
sS'total_compensation_abs_abs_abs_abs_abs_abs_abs_abs_abs_abs_abs_abs_abs_abs_abs_abs_abs_abs_abs_abs_abs_abs_abs_abs_abs_abs_abs_abs_abs_abs_abs_abs_abs_abs_abs_abs_abs_abs_abs_abs_abs_abs_abs_abs_abs_abs_abs_abs_abs_abs_abs_abs_abs_abs_abs_abs_abs_abs_abs_abs_abs_abs_abs_abs_abs_abs_abs_abs_abs_abs_abs_abs_abs_abs_abs_abs_abs_abs_abs_abs_abs_abs_abs_abs_abs_abs_abs_abs_abs_abs_abs_abs_abs_abs_abs_abs_abs_abs_abs_abs_abs'
p401
I2830976
sg8
g5
sg9
S'mark.pickering@enron.com'
p402
sg11
g5
sg12
g5
sg13
I728
sg14
I400000
sg15
I67
sg16
g5
sg17
g5
sg18
I300000
sg19
I28798
sg20
I7
sg21
I0
sg22
g5
sg23
I655037
sg24
I1386690
sg25
I28798
ssS'THE TRAVEL AGENCY IN THE PARK'
p403
(dp404
g3
g5
sg4
g5
sg6
g5
sg7
I00
sg8
g5
sg9
g5
sg11
g5
sg12
g5
sS'total_compensation_abs_abs_abs_abs_abs_abs_abs_abs_abs_abs_abs_abs_abs_abs_abs_abs_abs_abs_abs_abs_abs_abs_abs_abs_abs_abs_abs_abs_abs_abs_abs_abs_abs_abs_abs_abs_abs_abs_abs_abs_abs_abs_abs_abs_abs_abs_abs_abs_abs_abs_abs_abs_abs_abs_abs_abs_abs_abs_abs_abs_abs_abs_abs_abs_abs_abs_abs_abs_abs_abs_abs_abs_abs_abs_abs_abs_abs_abs_abs_abs_abs_abs_abs_abs_abs_abs_abs_abs_abs_abs_abs_abs_abs_abs_abs_abs_abs_abs_abs_abs_abs_abs'
p405
I724192
sg13
g5
sg14
g5
sg15
g5
sg16
I362096
sg17
g5
sg18
g5
sg19
g5
sg20
g5
sg21
g5
sg22
g5
sg23
g5
sg24
I362096
sg25
g5
ssS'NOLES JAMES L'
p406
(dp407
S'total_compensation_abs_abs_abs_abs_abs_abs_abs_abs_abs_abs_abs_abs_abs_abs_abs_abs_abs_abs_abs_abs_abs_abs_abs_abs_abs_abs_abs_abs_abs_abs_abs_abs_abs_abs_abs_abs_abs_abs_abs_abs_abs_abs_abs_abs_abs_abs_abs_abs_abs_abs_abs_abs_abs_abs_abs_abs_abs_abs_abs_abs_abs_abs_abs_abs_abs_abs_abs_abs_abs_abs_abs_abs_abs_abs_abs_abs_abs_abs_abs_abs_abs_abs_abs_abs_abs_abs_abs_abs_abs_abs_abs_abs_abs_abs_abs_abs_abs_abs_abs_abs_abs_abs_abs'
p408
I2475324
sg3
g5
sg4
I774401
sg6
g5
sg7
I00
sg8
g5
sg9
g5
sg11
g5
sg12
I-94556
sg13
g5
sg14
g5
sg15
g5
sg16
g5
sg17
g5
sg18
g5
sg19
I368705
sg20
g5
sg21
g5
sg22
I463261
sg23
g5
sg24
I774401
sg25
g5
ssS'KEAN STEVEN J'
p409
(dp410
g3
I12754
sg4
g5
sg6
I41953
sg7
I00
sg8
g5
sg9
S'steven.kean@enron.com'
p411
sg11
I300000
sS'total_compensation_abs_abs_abs_abs_abs_abs_abs_abs_abs_abs_abs_abs_abs_abs_abs_abs_abs_abs_abs_abs_abs_abs_abs_abs_abs_abs_abs_abs_abs_abs_abs_abs_abs_abs_abs_abs_abs_abs_abs_abs_abs_abs_abs_abs_abs_abs_abs_abs_abs_abs_abs_abs_abs_abs_abs_abs_abs_abs_abs_abs_abs_abs_abs_abs_abs_abs_abs_abs_abs_abs_abs_abs_abs_abs_abs_abs_abs_abs_abs_abs_abs_abs_abs_abs_abs_abs_abs_abs_abs_abs_abs_abs_abs_abs_abs_abs_abs_abs_abs_abs_abs_abs_abs_abs'
p412
I15802328
sg12
g5
sg13
I3639
sg14
g5
sg15
I6759
sg16
I1231
sg17
g5
sg18
I1000000
sg19
I6153642
sg20
I140
sg21
I387
sg22
I4131594
sg23
I404338
sg24
I1747522
sg25
I2022048
ssS'FOWLER PEGGY'
p413
(dp414
g3
I517
sg4
g5
sS'total_compensation_abs_abs_abs_abs_abs_abs_abs_abs_abs_abs_abs_abs_abs_abs_abs_abs_abs_abs_abs_abs_abs_abs_abs_abs_abs_abs_abs_abs_abs_abs_abs_abs_abs_abs_abs_abs_abs_abs_abs_abs_abs_abs_abs_abs_abs_abs_abs_abs_abs_abs_abs_abs_abs_abs_abs_abs_abs_abs_abs_abs_abs_abs_abs_abs_abs_abs_abs_abs_abs_abs_abs_abs_abs_abs_abs_abs_abs_abs_abs_abs_abs_abs_abs_abs_abs_abs_abs_abs_abs_abs_abs_abs_abs_abs_abs_abs_abs_abs_abs_abs_abs_abs_abs_abs_abs'
p415
I3769496
sg6
g5
sg7
I00
sg8
g5
sg9
S'kulvinder.fowler@enron.com'
p416
sg11
g5
sg12
g5
sg13
I10
sg14
g5
sg15
I36
sg16
g5
sg17
g5
sg18
g5
sg19
I1884748
sg20
I0
sg21
I0
sg22
I560170
sg23
g5
sg24
g5
sg25
I1324578
ssS'WASAFF GEORGE'
p417
(dp418
g3
I400
sg4
I831299
sg6
g5
sg7
I00
sg8
I-583325
sg9
S'george.wasaff@enron.com'
p419
sg11
I200000
sg12
g5
sg13
I337
sg14
g5
sg15
I30
sg16
I1425
sg17
g5
sg18
I325000
sg19
I2056427
sg20
I22
sg21
I7
sg22
I388167
sg23
I259996
sg24
I1034395
sg25
I1668260
sS'total_compensation_abs_abs_abs_abs_abs_abs_abs_abs_abs_abs_abs_abs_abs_abs_abs_abs_abs_abs_abs_abs_abs_abs_abs_abs_abs_abs_abs_abs_abs_abs_abs_abs_abs_abs_abs_abs_abs_abs_abs_abs_abs_abs_abs_abs_abs_abs_abs_abs_abs_abs_abs_abs_abs_abs_abs_abs_abs_abs_abs_abs_abs_abs_abs_abs_abs_abs_abs_abs_abs_abs_abs_abs_abs_abs_abs_abs_abs_abs_abs_abs_abs_abs_abs_abs_abs_abs_abs_abs_abs_abs_abs_abs_abs_abs_abs_abs_abs_abs_abs_abs_abs_abs_abs_abs_abs_abs'
p420
I7348294
ssS'WHITE JR THOMAS E'
p421
(dp422
g3
g5
sg4
g5
sg6
I81353
sg7
I00
sg8
g5
sg9
S'thomas.white@enron.com'
p423
sg11
g5
sg12
g5
sg13
g5
sg14
g5
sg15
g5
sg16
I1085463
sS'total_compensation_abs_abs_abs_abs_abs_abs_abs_abs_abs_abs_abs_abs_abs_abs_abs_abs_abs_abs_abs_abs_abs_abs_abs_abs_abs_abs_abs_abs_abs_abs_abs_abs_abs_abs_abs_abs_abs_abs_abs_abs_abs_abs_abs_abs_abs_abs_abs_abs_abs_abs_abs_abs_abs_abs_abs_abs_abs_abs_abs_abs_abs_abs_abs_abs_abs_abs_abs_abs_abs_abs_abs_abs_abs_abs_abs_abs_abs_abs_abs_abs_abs_abs_abs_abs_abs_abs_abs_abs_abs_abs_abs_abs_abs_abs_abs_abs_abs_abs_abs_abs_abs_abs_abs_abs_abs_abs_abs'
p424
I34156964
sg17
g5
sg18
I450000
sg19
I15144123
sg20
g5
sg21
g5
sg22
I13847074
sg23
I317543
sg24
I1934359
sg25
I1297049
ssS'CHRISTODOULOU DIOMEDES'
p425
(dp426
g3
g5
sg4
g5
sg6
g5
sg7
I00
sg8
g5
sg9
S'diomedes.christodoulou@enron.com'
p427
sg11
g5
sS'total_compensation_abs_abs_abs_abs_abs_abs_abs_abs_abs_abs_abs_abs_abs_abs_abs_abs_abs_abs_abs_abs_abs_abs_abs_abs_abs_abs_abs_abs_abs_abs_abs_abs_abs_abs_abs_abs_abs_abs_abs_abs_abs_abs_abs_abs_abs_abs_abs_abs_abs_abs_abs_abs_abs_abs_abs_abs_abs_abs_abs_abs_abs_abs_abs_abs_abs_abs_abs_abs_abs_abs_abs_abs_abs_abs_abs_abs_abs_abs_abs_abs_abs_abs_abs_abs_abs_abs_abs_abs_abs_abs_abs_abs_abs_abs_abs_abs_abs_abs_abs_abs_abs_abs_abs_abs_abs_abs_abs_abs'
p428
I12155770
sg12
g5
sg13
g5
sg14
g5
sg15
g5
sg16
g5
sg17
g5
sg18
g5
sg19
I6077885
sg20
g5
sg21
g5
sg22
I950730
sg23
g5
sg24
g5
sg25
I5127155
ssS'ALLEN PHILLIP K'
p429
(dp430
g3
I2902
sg4
I2869717
sg6
I13868
sg7
I00
sg8
I-3081055
sg9
S'phillip.allen@enron.com'
p431
sg11
I304805
sg12
I-126027
sg13
I1407
sg14
g5
sg15
I2195
sg16
I152
sS'total_compensation_abs_abs_abs_abs_abs_abs_abs_abs_abs_abs_abs_abs_abs_abs_abs_abs_abs_abs_abs_abs_abs_abs_abs_abs_abs_abs_abs_abs_abs_abs_abs_abs_abs_abs_abs_abs_abs_abs_abs_abs_abs_abs_abs_abs_abs_abs_abs_abs_abs_abs_abs_abs_abs_abs_abs_abs_abs_abs_abs_abs_abs_abs_abs_abs_abs_abs_abs_abs_abs_abs_abs_abs_abs_abs_abs_abs_abs_abs_abs_abs_abs_abs_abs_abs_abs_abs_abs_abs_abs_abs_abs_abs_abs_abs_abs_abs_abs_abs_abs_abs_abs_abs_abs_abs_abs_abs_abs_abs_abs'
p432
I18842130
sg17
g5
sg18
I4175000
sg19
I1729541
sg20
I47
sg21
I65
sg22
I126027
sg23
I201955
sg24
I4484442
sg25
I1729541
ssS'SHARP VICTORIA T'
p433
(dp434
g3
I3136
sg4
I187469
sg6
I116337
sg7
I00
sg8
g5
sg9
S'vicki.sharp@enron.com'
p435
sg11
I422158
sg12
g5
sg13
I2477
sg14
g5
sg15
I136
sg16
I2401
sg17
g5
sg18
I600000
sg19
I494136
sg20
I24
sg21
I6
sg22
I213063
sS'total_compensation_abs_abs_abs_abs_abs_abs_abs_abs_abs_abs_abs_abs_abs_abs_abs_abs_abs_abs_abs_abs_abs_abs_abs_abs_abs_abs_abs_abs_abs_abs_abs_abs_abs_abs_abs_abs_abs_abs_abs_abs_abs_abs_abs_abs_abs_abs_abs_abs_abs_abs_abs_abs_abs_abs_abs_abs_abs_abs_abs_abs_abs_abs_abs_abs_abs_abs_abs_abs_abs_abs_abs_abs_abs_abs_abs_abs_abs_abs_abs_abs_abs_abs_abs_abs_abs_abs_abs_abs_abs_abs_abs_abs_abs_abs_abs_abs_abs_abs_abs_abs_abs_abs_abs_abs_abs_abs_abs_abs_abs_abs'
p436
I4141294
sg23
I248146
sg24
I1576511
sg25
I281073
ssS'JAEDICKE ROBERT'
p437
(dp438
g3
g5
sg4
g5
sg6
g5
sg7
I00
sg8
I-25000
sg9
g5
sg11
g5
sg12
I-44093
sg13
g5
sS'total_compensation_abs_abs_abs_abs_abs_abs_abs_abs_abs_abs_abs_abs_abs_abs_abs_abs_abs_abs_abs_abs_abs_abs_abs_abs_abs_abs_abs_abs_abs_abs_abs_abs_abs_abs_abs_abs_abs_abs_abs_abs_abs_abs_abs_abs_abs_abs_abs_abs_abs_abs_abs_abs_abs_abs_abs_abs_abs_abs_abs_abs_abs_abs_abs_abs_abs_abs_abs_abs_abs_abs_abs_abs_abs_abs_abs_abs_abs_abs_abs_abs_abs_abs_abs_abs_abs_abs_abs_abs_abs_abs_abs_abs_abs_abs_abs_abs_abs_abs_abs_abs_abs_abs_abs_abs_abs_abs_abs_abs_abs_abs_abs'
p439
I1169186
sg14
g5
sg15
g5
sg16
g5
sg17
I108750
sg18
g5
sg19
I431750
sg20
g5
sg21
g5
sg22
I44093
sg23
g5
sg24
I83750
sg25
I431750
ssS'WINOKUR JR. HERBERT S'
p440
(dp441
g3
g5
sg4
g5
sg6
I1413
sg7
I00
sg8
I-25000
sg9
g5
sg11
g5
sg12
g5
sg13
g5
sg14
g5
sg15
g5
sg16
g5
sS'total_compensation_abs_abs_abs_abs_abs_abs_abs_abs_abs_abs_abs_abs_abs_abs_abs_abs_abs_abs_abs_abs_abs_abs_abs_abs_abs_abs_abs_abs_abs_abs_abs_abs_abs_abs_abs_abs_abs_abs_abs_abs_abs_abs_abs_abs_abs_abs_abs_abs_abs_abs_abs_abs_abs_abs_abs_abs_abs_abs_abs_abs_abs_abs_abs_abs_abs_abs_abs_abs_abs_abs_abs_abs_abs_abs_abs_abs_abs_abs_abs_abs_abs_abs_abs_abs_abs_abs_abs_abs_abs_abs_abs_abs_abs_abs_abs_abs_abs_abs_abs_abs_abs_abs_abs_abs_abs_abs_abs_abs_abs_abs_abs_abs'
p442
I219984
sg17
I108579
sg18
g5
sg19
g5
sg20
g5
sg21
g5
sg22
g5
sg23
g5
sg24
I84992
sg25
g5
ssS'BROWN MICHAEL'
p443
(dp444
g3
I1486
sg4
g5
sg6
I49288
sg7
I00
sg8
g5
sS'total_compensation_abs_abs_abs_abs_abs_abs_abs_abs_abs_abs_abs_abs_abs_abs_abs_abs_abs_abs_abs_abs_abs_abs_abs_abs_abs_abs_abs_abs_abs_abs_abs_abs_abs_abs_abs_abs_abs_abs_abs_abs_abs_abs_abs_abs_abs_abs_abs_abs_abs_abs_abs_abs_abs_abs_abs_abs_abs_abs_abs_abs_abs_abs_abs_abs_abs_abs_abs_abs_abs_abs_abs_abs_abs_abs_abs_abs_abs_abs_abs_abs_abs_abs_abs_abs_abs_abs_abs_abs_abs_abs_abs_abs_abs_abs_abs_abs_abs_abs_abs_abs_abs_abs_abs_abs_abs_abs_abs_abs_abs_abs_abs_abs_abs'
p445
I98576
sg11
g5
sg9
S'michael.brown@enron.com'
p446
sg12
g5
sg13
I761
sg14
g5
sg15
I41
sg16
g5
sg17
g5
sg18
g5
sg19
g5
sg20
I13
sg21
I1
sg22
g5
sg23
g5
sg24
I49288
sg25
g5
ssS'BADUM JAMES P'
p447
(dp448
g3
g5
sg4
I178980
sg6
I3486
sg7
I00
sg8
g5
sg9
g5
sg11
g5
sS'total_compensation_abs_abs_abs_abs_abs_abs_abs_abs_abs_abs_abs_abs_abs_abs_abs_abs_abs_abs_abs_abs_abs_abs_abs_abs_abs_abs_abs_abs_abs_abs_abs_abs_abs_abs_abs_abs_abs_abs_abs_abs_abs_abs_abs_abs_abs_abs_abs_abs_abs_abs_abs_abs_abs_abs_abs_abs_abs_abs_abs_abs_abs_abs_abs_abs_abs_abs_abs_abs_abs_abs_abs_abs_abs_abs_abs_abs_abs_abs_abs_abs_abs_abs_abs_abs_abs_abs_abs_abs_abs_abs_abs_abs_abs_abs_abs_abs_abs_abs_abs_abs_abs_abs_abs_abs_abs_abs_abs_abs_abs_abs_abs_abs_abs_abs'
p449
I880566
sg12
g5
sg13
g5
sg14
g5
sg15
g5
sg16
g5
sg17
g5
sg18
g5
sg19
I257817
sg20
g5
sg21
g5
sg22
g5
sg23
g5
sg24
I182466
sg25
I257817
ssS'HUGHES JAMES A'
p450
(dp451
g3
I719
sg4
g5
sS'total_compensation_abs_abs_abs_abs_abs_abs_abs_abs_abs_abs_abs_abs_abs_abs_abs_abs_abs_abs_abs_abs_abs_abs_abs_abs_abs_abs_abs_abs_abs_abs_abs_abs_abs_abs_abs_abs_abs_abs_abs_abs_abs_abs_abs_abs_abs_abs_abs_abs_abs_abs_abs_abs_abs_abs_abs_abs_abs_abs_abs_abs_abs_abs_abs_abs_abs_abs_abs_abs_abs_abs_abs_abs_abs_abs_abs_abs_abs_abs_abs_abs_abs_abs_abs_abs_abs_abs_abs_abs_abs_abs_abs_abs_abs_abs_abs_abs_abs_abs_abs_abs_abs_abs_abs_abs_abs_abs_abs_abs_abs_abs_abs_abs_abs_abs_abs'
p452
I2236788
sg6
g5
sg7
I00
sg8
g5
sg9
S'james.hughes@enron.com'
p453
sg11
g5
sg12
g5
sg13
I589
sg14
g5
sg15
I34
sg16
g5
sg17
g5
sg18
g5
sg19
I1118394
sg20
I35
sg21
I5
sg22
I363428
sg23
g5
sg24
g5
sg25
I754966
ssS'REYNOLDS LAWRENCE'
p454
(dp455
g3
g5
sg4
I51365
sg6
I8409
sg7
I00
sg8
I-200000
sg9
g5
sg11
I156250
sg12
I-140264
sg13
g5
sg14
g5
sg15
g5
sg16
I202052
sg17
g5
sg18
I100000
sg19
I4221891
sg20
g5
sS'total_compensation_abs_abs_abs_abs_abs_abs_abs_abs_abs_abs_abs_abs_abs_abs_abs_abs_abs_abs_abs_abs_abs_abs_abs_abs_abs_abs_abs_abs_abs_abs_abs_abs_abs_abs_abs_abs_abs_abs_abs_abs_abs_abs_abs_abs_abs_abs_abs_abs_abs_abs_abs_abs_abs_abs_abs_abs_abs_abs_abs_abs_abs_abs_abs_abs_abs_abs_abs_abs_abs_abs_abs_abs_abs_abs_abs_abs_abs_abs_abs_abs_abs_abs_abs_abs_abs_abs_abs_abs_abs_abs_abs_abs_abs_abs_abs_abs_abs_abs_abs_abs_abs_abs_abs_abs_abs_abs_abs_abs_abs_abs_abs_abs_abs_abs_abs_abs'
p456
I9913260
sg21
g5
sg22
I201483
sg23
I76399
sg24
I394475
sg25
I4160672
ssS'DIMICHELE RICHARD G'
p457
(dp458
g3
g5
sg4
g5
sg6
I35812
sg7
I00
sg8
g5
sg9
S'richard.dimichele@enron.com'
p459
sg11
I694862
sS'total_compensation_abs_abs_abs_abs_abs_abs_abs_abs_abs_abs_abs_abs_abs_abs_abs_abs_abs_abs_abs_abs_abs_abs_abs_abs_abs_abs_abs_abs_abs_abs_abs_abs_abs_abs_abs_abs_abs_abs_abs_abs_abs_abs_abs_abs_abs_abs_abs_abs_abs_abs_abs_abs_abs_abs_abs_abs_abs_abs_abs_abs_abs_abs_abs_abs_abs_abs_abs_abs_abs_abs_abs_abs_abs_abs_abs_abs_abs_abs_abs_abs_abs_abs_abs_abs_abs_abs_abs_abs_abs_abs_abs_abs_abs_abs_abs_abs_abs_abs_abs_abs_abs_abs_abs_abs_abs_abs_abs_abs_abs_abs_abs_abs_abs_abs_abs_abs_abs'
p460
I21371866
sg12
g5
sg13
g5
sg14
g5
sg15
g5
sg16
I374689
sg17
g5
sg18
I1000000
sg19
I8317782
sg20
g5
sg21
g5
sg22
I126027
sg23
I262788
sg24
I2368151
sg25
I8191755
ssS'BHATNAGAR SANJAY'
p461
(dp462
g3
I523
sg4
g5
sS'total_compensation_abs_abs_abs_abs_abs_abs_abs_abs_abs_abs_abs_abs_abs_abs_abs_abs_abs_abs_abs_abs_abs_abs_abs_abs_abs_abs_abs_abs_abs_abs_abs_abs_abs_abs_abs_abs_abs_abs_abs_abs_abs_abs_abs_abs_abs_abs_abs_abs_abs_abs_abs_abs_abs_abs_abs_abs_abs_abs_abs_abs_abs_abs_abs_abs_abs_abs_abs_abs_abs_abs_abs_abs_abs_abs_abs_abs_abs_abs_abs_abs_abs_abs_abs_abs_abs_abs_abs_abs_abs_abs_abs_abs_abs_abs_abs_abs_abs_abs_abs_abs_abs_abs_abs_abs_abs_abs_abs_abs_abs_abs_abs_abs_abs_abs_abs_abs_abs_abs'
p463
I36397288
sg6
g5
sg7
I00
sg8
g5
sg9
S'sanjay.bhatnagar@enron.com'
p464
sg11
g5
sg12
I15456290
sg13
I463
sg14
g5
sg15
I29
sg16
I137864
sg17
I137864
sg18
g5
sS'total_stock_value'
p465
S'NaN'
p466
sg20
I0
sg21
I1
sg22
I-2604490
sg23
g5
sg24
I15456290
sg25
I2604490
ssS'CARTER REBECCA C'
p467
(dp468
g3
I312
sg4
g5
sg6
g5
sg7
I00
sg8
I-159792
sg9
S'rebecca.carter@enron.com'
p469
sg11
I75000
sS'total_compensation_abs_abs_abs_abs_abs_abs_abs_abs_abs_abs_abs_abs_abs_abs_abs_abs_abs_abs_abs_abs_abs_abs_abs_abs_abs_abs_abs_abs_abs_abs_abs_abs_abs_abs_abs_abs_abs_abs_abs_abs_abs_abs_abs_abs_abs_abs_abs_abs_abs_abs_abs_abs_abs_abs_abs_abs_abs_abs_abs_abs_abs_abs_abs_abs_abs_abs_abs_abs_abs_abs_abs_abs_abs_abs_abs_abs_abs_abs_abs_abs_abs_abs_abs_abs_abs_abs_abs_abs_abs_abs_abs_abs_abs_abs_abs_abs_abs_abs_abs_abs_abs_abs_abs_abs_abs_abs_abs_abs_abs_abs_abs_abs_abs_abs_abs_abs_abs_abs_abs'
p470
I1889300
sg12
I-307301
sg13
I196
sg14
g5
sg15
I15
sg16
I540
sg17
g5
sg18
I300000
sg19
g5
sg20
I29
sg21
I7
sg22
I307301
sg23
I261809
sg24
I477557
sg25
g5
ssS'BUCHANAN HAROLD G'
p471
(dp472
g3
I1088
sg4
g5
sS'total_compensation_abs_abs_abs_abs_abs_abs_abs_abs_abs_abs_abs_abs_abs_abs_abs_abs_abs_abs_abs_abs_abs_abs_abs_abs_abs_abs_abs_abs_abs_abs_abs_abs_abs_abs_abs_abs_abs_abs_abs_abs_abs_abs_abs_abs_abs_abs_abs_abs_abs_abs_abs_abs_abs_abs_abs_abs_abs_abs_abs_abs_abs_abs_abs_abs_abs_abs_abs_abs_abs_abs_abs_abs_abs_abs_abs_abs_abs_abs_abs_abs_abs_abs_abs_abs_abs_abs_abs_abs_abs_abs_abs_abs_abs_abs_abs_abs_abs_abs_abs_abs_abs_abs_abs_abs_abs_abs_abs_abs_abs_abs_abs_abs_abs_abs_abs_abs_abs_abs_abs_abs'
p473
I4138284
sg6
I600
sg7
I00
sg8
g5
sg9
S'john.buchanan@enron.com'
p474
sg11
I304805
sg12
g5
sg13
I23
sg14
g5
sg15
I125
sg16
I1215
sg17
g5
sg18
I500000
sg19
I1014505
sg20
I0
sg21
I0
sg22
I189041
sg23
I248017
sg24
I1054637
sg25
I825464
ssS'YEAP SOON'
p475
(dp476
g3
g5
sg4
g5
sg6
I55097
sg7
I00
sg8
g5
sg9
g5
sg11
g5
sg12
g5
sS'total_compensation_abs_abs_abs_abs_abs_abs_abs_abs_abs_abs_abs_abs_abs_abs_abs_abs_abs_abs_abs_abs_abs_abs_abs_abs_abs_abs_abs_abs_abs_abs_abs_abs_abs_abs_abs_abs_abs_abs_abs_abs_abs_abs_abs_abs_abs_abs_abs_abs_abs_abs_abs_abs_abs_abs_abs_abs_abs_abs_abs_abs_abs_abs_abs_abs_abs_abs_abs_abs_abs_abs_abs_abs_abs_abs_abs_abs_abs_abs_abs_abs_abs_abs_abs_abs_abs_abs_abs_abs_abs_abs_abs_abs_abs_abs_abs_abs_abs_abs_abs_abs_abs_abs_abs_abs_abs_abs_abs_abs_abs_abs_abs_abs_abs_abs_abs_abs_abs_abs_abs_abs_abs'
p477
I495710
sg13
g5
sg14
g5
sg15
g5
sg16
g5
sg17
g5
sg18
g5
sg19
I192758
sg20
g5
sg21
g5
sg22
g5
sg23
g5
sg24
I55097
sg25
I192758
ssS'MURRAY JULIA H'
p478
(dp479
g3
I2192
sg4
g5
sg6
I57580
sg7
I00
sg8
g5
sg9
S'julia.murray@enron.com'
p480
sg11
I125000
sg12
g5
sg13
I395
sg14
g5
sg15
I45
sg16
I330
sS'total_compensation_abs_abs_abs_abs_abs_abs_abs_abs_abs_abs_abs_abs_abs_abs_abs_abs_abs_abs_abs_abs_abs_abs_abs_abs_abs_abs_abs_abs_abs_abs_abs_abs_abs_abs_abs_abs_abs_abs_abs_abs_abs_abs_abs_abs_abs_abs_abs_abs_abs_abs_abs_abs_abs_abs_abs_abs_abs_abs_abs_abs_abs_abs_abs_abs_abs_abs_abs_abs_abs_abs_abs_abs_abs_abs_abs_abs_abs_abs_abs_abs_abs_abs_abs_abs_abs_abs_abs_abs_abs_abs_abs_abs_abs_abs_abs_abs_abs_abs_abs_abs_abs_abs_abs_abs_abs_abs_abs_abs_abs_abs_abs_abs_abs_abs_abs_abs_abs_abs_abs_abs_abs_abs'
p481
I2819310
sg17
g5
sg18
I400000
sg19
I597461
sg20
I11
sg21
I2
sg22
I196983
sg23
I229284
sg24
I812194
sg25
I400478
ssS'GARLAND C KEVIN'
p482
(dp483
g3
I209
sg4
g5
sg6
I48405
sg7
I00
sg8
g5
sg9
S'kevin.garland@enron.com'
p484
sg11
I375304
sg12
g5
sg13
I178
sg14
g5
sg15
I44
sg16
I60814
sg17
g5
sg18
I850000
sg19
I896153
sg20
I10
sg21
I27
sS'total_compensation_abs_abs_abs_abs_abs_abs_abs_abs_abs_abs_abs_abs_abs_abs_abs_abs_abs_abs_abs_abs_abs_abs_abs_abs_abs_abs_abs_abs_abs_abs_abs_abs_abs_abs_abs_abs_abs_abs_abs_abs_abs_abs_abs_abs_abs_abs_abs_abs_abs_abs_abs_abs_abs_abs_abs_abs_abs_abs_abs_abs_abs_abs_abs_abs_abs_abs_abs_abs_abs_abs_abs_abs_abs_abs_abs_abs_abs_abs_abs_abs_abs_abs_abs_abs_abs_abs_abs_abs_abs_abs_abs_abs_abs_abs_abs_abs_abs_abs_abs_abs_abs_abs_abs_abs_abs_abs_abs_abs_abs_abs_abs_abs_abs_abs_abs_abs_abs_abs_abs_abs_abs_abs_abs'
p485
I4925244
sg22
I259907
sg23
I231946
sg24
I1566469
sg25
I636246
ssS'DODSON KEITH'
p486
(dp487
g3
I176
sg4
g5
sg6
I28164
sg7
I00
sg8
g5
sg9
S'keith.dodson@enron.com'
p488
sg11
g5
sg12
g5
sg13
I114
sg14
g5
sg15
I14
sg16
I774
sg17
g5
sS'total_compensation_abs_abs_abs_abs_abs_abs_abs_abs_abs_abs_abs_abs_abs_abs_abs_abs_abs_abs_abs_abs_abs_abs_abs_abs_abs_abs_abs_abs_abs_abs_abs_abs_abs_abs_abs_abs_abs_abs_abs_abs_abs_abs_abs_abs_abs_abs_abs_abs_abs_abs_abs_abs_abs_abs_abs_abs_abs_abs_abs_abs_abs_abs_abs_abs_abs_abs_abs_abs_abs_abs_abs_abs_abs_abs_abs_abs_abs_abs_abs_abs_abs_abs_abs_abs_abs_abs_abs_abs_abs_abs_abs_abs_abs_abs_abs_abs_abs_abs_abs_abs_abs_abs_abs_abs_abs_abs_abs_abs_abs_abs_abs_abs_abs_abs_abs_abs_abs_abs_abs_abs_abs_abs_abs_abs'
p489
I639882
sg18
I70000
sg19
g5
sg20
I10
sg21
I3
sg22
g5
sg23
I221003
sg24
I319941
sg25
g5
ssS'YEAGER F SCOTT'
p490
(dp491
g3
g5
sg4
g5
sg6
I53947
sS'total_compensation_abs_abs_abs_abs_abs_abs_abs_abs_abs_abs_abs_abs_abs_abs_abs_abs_abs_abs_abs_abs_abs_abs_abs_abs_abs_abs_abs_abs_abs_abs_abs_abs_abs_abs_abs_abs_abs_abs_abs_abs_abs_abs_abs_abs_abs_abs_abs_abs_abs_abs_abs_abs_abs_abs_abs_abs_abs_abs_abs_abs_abs_abs_abs_abs_abs_abs_abs_abs_abs_abs_abs_abs_abs_abs_abs_abs_abs_abs_abs_abs_abs_abs_abs_abs_abs_abs_abs_abs_abs_abs_abs_abs_abs_abs_abs_abs_abs_abs_abs_abs_abs_abs_abs_abs_abs_abs_abs_abs_abs_abs_abs_abs_abs_abs_abs_abs_abs_abs_abs_abs_abs_abs_abs_abs_abs'
p492
I24490116
sg7
I01
sg8
g5
sg9
S'scott.yeager@enron.com'
p493
sg11
g5
sg12
g5
sg13
g5
sg14
g5
sg15
g5
sg16
I147950
sg17
g5
sg18
g5
sg19
I11884758
sg20
g5
sg21
g5
sg22
I3576206
sg23
I158403
sg24
I360300
sg25
I8308552
ssS'HIRKO JOSEPH'
p494
(dp495
g3
g5
sg4
I10259
sg6
I77978
sg7
I01
sg8
g5
sg9
S'joe.hirko@enron.com'
p496
sg11
g5
sg12
g5
sg13
g5
sg14
g5
sg15
g5
sg16
I2856
sg17
g5
sg18
g5
sg19
I30766064
sg20
g5
sg21
g5
sg22
g5
sg23
g5
sg24
I91093
sg25
I30766064
sS'total_compensation_abs_abs_abs_abs_abs_abs_abs_abs_abs_abs_abs_abs_abs_abs_abs_abs_abs_abs_abs_abs_abs_abs_abs_abs_abs_abs_abs_abs_abs_abs_abs_abs_abs_abs_abs_abs_abs_abs_abs_abs_abs_abs_abs_abs_abs_abs_abs_abs_abs_abs_abs_abs_abs_abs_abs_abs_abs_abs_abs_abs_abs_abs_abs_abs_abs_abs_abs_abs_abs_abs_abs_abs_abs_abs_abs_abs_abs_abs_abs_abs_abs_abs_abs_abs_abs_abs_abs_abs_abs_abs_abs_abs_abs_abs_abs_abs_abs_abs_abs_abs_abs_abs_abs_abs_abs_abs_abs_abs_abs_abs_abs_abs_abs_abs_abs_abs_abs_abs_abs_abs_abs_abs_abs_abs_abs_abs'
p497
I61714314
ssS'DIETRICH JANET R'
p498
(dp499
g3
I2572
sg4
g5
sg6
I3475
sS'total_compensation_abs_abs_abs_abs_abs_abs_abs_abs_abs_abs_abs_abs_abs_abs_abs_abs_abs_abs_abs_abs_abs_abs_abs_abs_abs_abs_abs_abs_abs_abs_abs_abs_abs_abs_abs_abs_abs_abs_abs_abs_abs_abs_abs_abs_abs_abs_abs_abs_abs_abs_abs_abs_abs_abs_abs_abs_abs_abs_abs_abs_abs_abs_abs_abs_abs_abs_abs_abs_abs_abs_abs_abs_abs_abs_abs_abs_abs_abs_abs_abs_abs_abs_abs_abs_abs_abs_abs_abs_abs_abs_abs_abs_abs_abs_abs_abs_abs_abs_abs_abs_abs_abs_abs_abs_abs_abs_abs_abs_abs_abs_abs_abs_abs_abs_abs_abs_abs_abs_abs_abs_abs_abs_abs_abs_abs_abs_abs'
p500
I6551102
sg7
I00
sg8
g5
sg9
S'janet.dietrich@enron.com'
p501
sg11
I556416
sg12
g5
sg13
I1902
sg14
g5
sg15
I63
sg16
I473
sg17
g5
sg18
I600000
sg19
I1865087
sg20
I305
sg21
I14
sg22
I315068
sg23
I250100
sg24
I1410464
sg25
I1550019
ssS'DERRICK JR. JAMES V'
p502
(dp503
g3
I2181
sg4
g5
sg6
I51124
sg7
I00
sg8
I-1284000
sg9
S'james.derrick@enron.com'
p504
sg11
I484000
sg12
I-1787380
sg13
I1401
sg14
g5
sg15
I909
sg16
I7482
sg17
g5
sg18
I800000
sg19
I8831913
sg20
I64
sg21
I20
sS'total_compensation_abs_abs_abs_abs_abs_abs_abs_abs_abs_abs_abs_abs_abs_abs_abs_abs_abs_abs_abs_abs_abs_abs_abs_abs_abs_abs_abs_abs_abs_abs_abs_abs_abs_abs_abs_abs_abs_abs_abs_abs_abs_abs_abs_abs_abs_abs_abs_abs_abs_abs_abs_abs_abs_abs_abs_abs_abs_abs_abs_abs_abs_abs_abs_abs_abs_abs_abs_abs_abs_abs_abs_abs_abs_abs_abs_abs_abs_abs_abs_abs_abs_abs_abs_abs_abs_abs_abs_abs_abs_abs_abs_abs_abs_abs_abs_abs_abs_abs_abs_abs_abs_abs_abs_abs_abs_abs_abs_abs_abs_abs_abs_abs_abs_abs_abs_abs_abs_abs_abs_abs_abs_abs_abs_abs_abs_abs_abs_abs'
p505
I24908548
sg22
I1787380
sg23
I492375
sg24
I550981
sg25
I8831913
ssS'FREVERT MARK A'
p506
(dp507
g3
I3275
sg4
I6426990
sg6
I86987
sg7
I00
sg8
I-3367011
sg9
S'mark.frevert@enron.com'
p508
sg11
I1617011
sg12
g5
sg13
I2979
sg14
I2000000
sg15
I21
sg16
I7427621
sg17
g5
sg18
I2000000
sg19
I14622185
sg20
I242
sg21
I6
sg22
I4188667
sg23
I1060932
sg24
I17252530
sg25
I10433518
sS'total_compensation_abs_abs_abs_abs_abs_abs_abs_abs_abs_abs_abs_abs_abs_abs_abs_abs_abs_abs_abs_abs_abs_abs_abs_abs_abs_abs_abs_abs_abs_abs_abs_abs_abs_abs_abs_abs_abs_abs_abs_abs_abs_abs_abs_abs_abs_abs_abs_abs_abs_abs_abs_abs_abs_abs_abs_abs_abs_abs_abs_abs_abs_abs_abs_abs_abs_abs_abs_abs_abs_abs_abs_abs_abs_abs_abs_abs_abs_abs_abs_abs_abs_abs_abs_abs_abs_abs_abs_abs_abs_abs_abs_abs_abs_abs_abs_abs_abs_abs_abs_abs_abs_abs_abs_abs_abs_abs_abs_abs_abs_abs_abs_abs_abs_abs_abs_abs_abs_abs_abs_abs_abs_abs_abs_abs_abs_abs_abs_abs_abs'
p509
I70483452
ssS'PAI LOU L'
p510
(dp511
g3
g5
sg4
g5
sg6
I32047
sg7
I00
sg8
g5
sg9
S'lou.pai@enron.com'
p512
sg11
g5
sg12
g5
sg13
g5
sg14
g5
sg15
g5
sg16
I1829457
sg17
g5
sS'total_compensation_abs_abs_abs_abs_abs_abs_abs_abs_abs_abs_abs_abs_abs_abs_abs_abs_abs_abs_abs_abs_abs_abs_abs_abs_abs_abs_abs_abs_abs_abs_abs_abs_abs_abs_abs_abs_abs_abs_abs_abs_abs_abs_abs_abs_abs_abs_abs_abs_abs_abs_abs_abs_abs_abs_abs_abs_abs_abs_abs_abs_abs_abs_abs_abs_abs_abs_abs_abs_abs_abs_abs_abs_abs_abs_abs_abs_abs_abs_abs_abs_abs_abs_abs_abs_abs_abs_abs_abs_abs_abs_abs_abs_abs_abs_abs_abs_abs_abs_abs_abs_abs_abs_abs_abs_abs_abs_abs_abs_abs_abs_abs_abs_abs_abs_abs_abs_abs_abs_abs_abs_abs_abs_abs_abs_abs_abs_abs_abs_abs_abs'
p513
I53882626
sg18
I1000000
sg19
I23817930
sg20
g5
sg21
g5
sg22
I8453763
sg23
I261879
sg24
I3123383
sg25
I15364167
ssS'BAY FRANKLIN R'
p514
(dp515
g3
g5
sg4
I260455
sg6
I129142
sg7
I00
sg8
I-201641
sg9
S'frank.bay@enron.com'
p516
sg11
g5
sg12
I-82782
sg13
g5
sg14
g5
sg15
g5
sg16
I69
sg17
g5
sg18
I400000
sg19
I63014
sg20
g5
sg21
g5
sg22
I145796
sg23
I239671
sg24
I827696
sS'total_compensation_abs_abs_abs_abs_abs_abs_abs_abs_abs_abs_abs_abs_abs_abs_abs_abs_abs_abs_abs_abs_abs_abs_abs_abs_abs_abs_abs_abs_abs_abs_abs_abs_abs_abs_abs_abs_abs_abs_abs_abs_abs_abs_abs_abs_abs_abs_abs_abs_abs_abs_abs_abs_abs_abs_abs_abs_abs_abs_abs_abs_abs_abs_abs_abs_abs_abs_abs_abs_abs_abs_abs_abs_abs_abs_abs_abs_abs_abs_abs_abs_abs_abs_abs_abs_abs_abs_abs_abs_abs_abs_abs_abs_abs_abs_abs_abs_abs_abs_abs_abs_abs_abs_abs_abs_abs_abs_abs_abs_abs_abs_abs_abs_abs_abs_abs_abs_abs_abs_abs_abs_abs_abs_abs_abs_abs_abs_abs_abs_abs_abs_abs'
p517
I2350266
sg25
g5
ssS'HAYSLETT RODERICK J'
p518
(dp519
g3
I2649
sg4
g5
sg6
g5
sg7
I00
sg8
g5
sg9
S'rod.hayslett@enron.com'
p520
sg11
g5
sS'total_compensation_abs_abs_abs_abs_abs_abs_abs_abs_abs_abs_abs_abs_abs_abs_abs_abs_abs_abs_abs_abs_abs_abs_abs_abs_abs_abs_abs_abs_abs_abs_abs_abs_abs_abs_abs_abs_abs_abs_abs_abs_abs_abs_abs_abs_abs_abs_abs_abs_abs_abs_abs_abs_abs_abs_abs_abs_abs_abs_abs_abs_abs_abs_abs_abs_abs_abs_abs_abs_abs_abs_abs_abs_abs_abs_abs_abs_abs_abs_abs_abs_abs_abs_abs_abs_abs_abs_abs_abs_abs_abs_abs_abs_abs_abs_abs_abs_abs_abs_abs_abs_abs_abs_abs_abs_abs_abs_abs_abs_abs_abs_abs_abs_abs_abs_abs_abs_abs_abs_abs_abs_abs_abs_abs_abs_abs_abs_abs_abs_abs_abs_abs_abs'
p521
I693326
sg12
g5
sg13
I571
sg14
g5
sg15
I1061
sg16
g5
sg17
g5
sg18
g5
sg19
I346663
sg20
I35
sg21
I38
sg22
I346663
sg23
g5
sg24
g5
sg25
g5
ssS'FUGH JOHN L'
p522
(dp523
g3
g5
sg4
I50591
sg6
g5
sg7
I00
sg8
g5
sg9
g5
sg11
g5
sg12
g5
sg13
g5
sg14
g5
sg15
g5
sg16
g5
sg17
g5
sS'total_compensation_abs_abs_abs_abs_abs_abs_abs_abs_abs_abs_abs_abs_abs_abs_abs_abs_abs_abs_abs_abs_abs_abs_abs_abs_abs_abs_abs_abs_abs_abs_abs_abs_abs_abs_abs_abs_abs_abs_abs_abs_abs_abs_abs_abs_abs_abs_abs_abs_abs_abs_abs_abs_abs_abs_abs_abs_abs_abs_abs_abs_abs_abs_abs_abs_abs_abs_abs_abs_abs_abs_abs_abs_abs_abs_abs_abs_abs_abs_abs_abs_abs_abs_abs_abs_abs_abs_abs_abs_abs_abs_abs_abs_abs_abs_abs_abs_abs_abs_abs_abs_abs_abs_abs_abs_abs_abs_abs_abs_abs_abs_abs_abs_abs_abs_abs_abs_abs_abs_abs_abs_abs_abs_abs_abs_abs_abs_abs_abs_abs_abs_abs_abs_abs'
p524
I453938
sg18
g5
sg19
I176378
sg20
g5
sg21
g5
sg22
g5
sg23
g5
sg24
I50591
sg25
I176378
ssS'FALLON JAMES B'
p525
(dp526
g3
I1755
sg4
g5
sg6
I95924
sg7
I00
sg8
g5
sg9
S'jim.fallon@enron.com'
p527
sg11
I374347
sg12
g5
sg13
I1604
sg14
g5
sg15
I75
sg16
I401481
sg17
g5
sg18
I2500000
sg19
I2332399
sg20
I42
sg21
I37
sg22
I1392142
sg23
I304588
sg24
I3676340
sS'total_compensation_abs_abs_abs_abs_abs_abs_abs_abs_abs_abs_abs_abs_abs_abs_abs_abs_abs_abs_abs_abs_abs_abs_abs_abs_abs_abs_abs_abs_abs_abs_abs_abs_abs_abs_abs_abs_abs_abs_abs_abs_abs_abs_abs_abs_abs_abs_abs_abs_abs_abs_abs_abs_abs_abs_abs_abs_abs_abs_abs_abs_abs_abs_abs_abs_abs_abs_abs_abs_abs_abs_abs_abs_abs_abs_abs_abs_abs_abs_abs_abs_abs_abs_abs_abs_abs_abs_abs_abs_abs_abs_abs_abs_abs_abs_abs_abs_abs_abs_abs_abs_abs_abs_abs_abs_abs_abs_abs_abs_abs_abs_abs_abs_abs_abs_abs_abs_abs_abs_abs_abs_abs_abs_abs_abs_abs_abs_abs_abs_abs_abs_abs_abs_abs_abs'
p528
I12017478
sg25
I940257
ssS'KOENIG MARK E'
p529
(dp530
g3
I2374
sg4
g5
sg6
I127017
sg7
I01
sg8
g5
sg9
S'mark.koenig@enron.com'
p531
sg11
I300000
sg12
g5
sg13
I2271
sg14
g5
sg15
I61
sg16
I150458
sg17
g5
sS'total_compensation_abs_abs_abs_abs_abs_abs_abs_abs_abs_abs_abs_abs_abs_abs_abs_abs_abs_abs_abs_abs_abs_abs_abs_abs_abs_abs_abs_abs_abs_abs_abs_abs_abs_abs_abs_abs_abs_abs_abs_abs_abs_abs_abs_abs_abs_abs_abs_abs_abs_abs_abs_abs_abs_abs_abs_abs_abs_abs_abs_abs_abs_abs_abs_abs_abs_abs_abs_abs_abs_abs_abs_abs_abs_abs_abs_abs_abs_abs_abs_abs_abs_abs_abs_abs_abs_abs_abs_abs_abs_abs_abs_abs_abs_abs_abs_abs_abs_abs_abs_abs_abs_abs_abs_abs_abs_abs_abs_abs_abs_abs_abs_abs_abs_abs_abs_abs_abs_abs_abs_abs_abs_abs_abs_abs_abs_abs_abs_abs_abs_abs_abs_abs_abs_abs_abs'
p532
I7014952
sg18
I700000
sg19
I1920055
sg20
I53
sg21
I15
sg22
I1248318
sg23
I309946
sg24
I1587421
sg25
I671737
ssS'SAVAGE FRANK'
p533
(dp534
g3
g5
sg4
g5
sg6
g5
sg7
I00
sg8
I-121284
sg9
g5
sg11
g5
sg12
g5
sg13
g5
sg14
g5
sg15
g5
sg16
g5
sg17
I125034
sg18
g5
sg19
g5
sg20
g5
sg21
g5
sg22
g5
sg23
g5
sg24
I3750
sS'total_compensation_abs_abs_abs_abs_abs_abs_abs_abs_abs_abs_abs_abs_abs_abs_abs_abs_abs_abs_abs_abs_abs_abs_abs_abs_abs_abs_abs_abs_abs_abs_abs_abs_abs_abs_abs_abs_abs_abs_abs_abs_abs_abs_abs_abs_abs_abs_abs_abs_abs_abs_abs_abs_abs_abs_abs_abs_abs_abs_abs_abs_abs_abs_abs_abs_abs_abs_abs_abs_abs_abs_abs_abs_abs_abs_abs_abs_abs_abs_abs_abs_abs_abs_abs_abs_abs_abs_abs_abs_abs_abs_abs_abs_abs_abs_abs_abs_abs_abs_abs_abs_abs_abs_abs_abs_abs_abs_abs_abs_abs_abs_abs_abs_abs_abs_abs_abs_abs_abs_abs_abs_abs_abs_abs_abs_abs_abs_abs_abs_abs_abs_abs_abs_abs_abs_abs_abs'
p535
I250068
sg25
g5
ssS'IZZO LAWRENCE L'
p536
(dp537
g3
I496
sg4
g5
sg6
I28093
sg7
I00
sg8
g5
sg9
S'larry.izzo@enron.com'
p538
sg11
I312500
sg12
g5
sg13
I437
sg14
g5
sg15
I19
sg16
I1553729
sg17
g5
sg18
g5
sS'total_compensation_abs_abs_abs_abs_abs_abs_abs_abs_abs_abs_abs_abs_abs_abs_abs_abs_abs_abs_abs_abs_abs_abs_abs_abs_abs_abs_abs_abs_abs_abs_abs_abs_abs_abs_abs_abs_abs_abs_abs_abs_abs_abs_abs_abs_abs_abs_abs_abs_abs_abs_abs_abs_abs_abs_abs_abs_abs_abs_abs_abs_abs_abs_abs_abs_abs_abs_abs_abs_abs_abs_abs_abs_abs_abs_abs_abs_abs_abs_abs_abs_abs_abs_abs_abs_abs_abs_abs_abs_abs_abs_abs_abs_abs_abs_abs_abs_abs_abs_abs_abs_abs_abs_abs_abs_abs_abs_abs_abs_abs_abs_abs_abs_abs_abs_abs_abs_abs_abs_abs_abs_abs_abs_abs_abs_abs_abs_abs_abs_abs_abs_abs_abs_abs_abs_abs_abs_abs'
p539
I15599152
sg19
I5819980
sg20
I28
sg21
I5
sg22
I3654808
sg23
I85274
sg24
I1979596
sg25
I2165172
ssS'TILNEY ELIZABETH A'
p540
(dp541
g3
I460
sg4
g5
sg6
g5
sS'total_compensation_abs_abs_abs_abs_abs_abs_abs_abs_abs_abs_abs_abs_abs_abs_abs_abs_abs_abs_abs_abs_abs_abs_abs_abs_abs_abs_abs_abs_abs_abs_abs_abs_abs_abs_abs_abs_abs_abs_abs_abs_abs_abs_abs_abs_abs_abs_abs_abs_abs_abs_abs_abs_abs_abs_abs_abs_abs_abs_abs_abs_abs_abs_abs_abs_abs_abs_abs_abs_abs_abs_abs_abs_abs_abs_abs_abs_abs_abs_abs_abs_abs_abs_abs_abs_abs_abs_abs_abs_abs_abs_abs_abs_abs_abs_abs_abs_abs_abs_abs_abs_abs_abs_abs_abs_abs_abs_abs_abs_abs_abs_abs_abs_abs_abs_abs_abs_abs_abs_abs_abs_abs_abs_abs_abs_abs_abs_abs_abs_abs_abs_abs_abs_abs_abs_abs_abs_abs_abs'
p542
I4284870
sg7
I00
sg8
I-575000
sg9
S'elizabeth.tilney@enron.com'
p543
sg11
I275000
sg12
g5
sg13
I379
sg14
g5
sg15
I19
sg16
I152055
sg17
g5
sg18
I300000
sg19
I1168042
sg20
I10
sg21
I11
sg22
I576792
sg23
I247338
sg24
I399393
sg25
I591250
ssS'MARTIN AMANDA K'
p544
(dp545
g3
I1522
sg4
I85430
sg6
I8211
sg7
I00
sg8
g5
sg9
S'a..martin@enron.com'
p546
sg11
I5145434
sg12
g5
sg13
I477
sg14
g5
sg15
I230
sg16
I2818454
sg17
g5
sg18
g5
sg19
I2070306
sg20
I8
sg21
I0
sg22
g5
sg23
I349487
sg24
I8407016
sg25
I2070306
sS'total_compensation_abs_abs_abs_abs_abs_abs_abs_abs_abs_abs_abs_abs_abs_abs_abs_abs_abs_abs_abs_abs_abs_abs_abs_abs_abs_abs_abs_abs_abs_abs_abs_abs_abs_abs_abs_abs_abs_abs_abs_abs_abs_abs_abs_abs_abs_abs_abs_abs_abs_abs_abs_abs_abs_abs_abs_abs_abs_abs_abs_abs_abs_abs_abs_abs_abs_abs_abs_abs_abs_abs_abs_abs_abs_abs_abs_abs_abs_abs_abs_abs_abs_abs_abs_abs_abs_abs_abs_abs_abs_abs_abs_abs_abs_abs_abs_abs_abs_abs_abs_abs_abs_abs_abs_abs_abs_abs_abs_abs_abs_abs_abs_abs_abs_abs_abs_abs_abs_abs_abs_abs_abs_abs_abs_abs_abs_abs_abs_abs_abs_abs_abs_abs_abs_abs_abs_abs_abs_abs_abs'
p547
I20954644
ssS'BUY RICHARD B'
p548
(dp549
g3
I3523
sg4
I649584
sg6
g5
sg7
I00
sg8
I-694862
sg9
S'rick.buy@enron.com'
p550
sg11
I769862
sg12
g5
sg13
I2333
sg14
g5
sg15
I1053
sg16
I400572
sg17
g5
sg18
I900000
sg19
I3444470
sg20
I156
sg21
I71
sg22
I901657
sg23
I330546
sS'total_compensation_abs_abs_abs_abs_abs_abs_abs_abs_abs_abs_abs_abs_abs_abs_abs_abs_abs_abs_abs_abs_abs_abs_abs_abs_abs_abs_abs_abs_abs_abs_abs_abs_abs_abs_abs_abs_abs_abs_abs_abs_abs_abs_abs_abs_abs_abs_abs_abs_abs_abs_abs_abs_abs_abs_abs_abs_abs_abs_abs_abs_abs_abs_abs_abs_abs_abs_abs_abs_abs_abs_abs_abs_abs_abs_abs_abs_abs_abs_abs_abs_abs_abs_abs_abs_abs_abs_abs_abs_abs_abs_abs_abs_abs_abs_abs_abs_abs_abs_abs_abs_abs_abs_abs_abs_abs_abs_abs_abs_abs_abs_abs_abs_abs_abs_abs_abs_abs_abs_abs_abs_abs_abs_abs_abs_abs_abs_abs_abs_abs_abs_abs_abs_abs_abs_abs_abs_abs_abs_abs_abs'
p551
I12990068
sg24
I2355702
sg25
I2542813
ssS'GRAMM WENDY L'
p552
(dp553
g3
g5
sg4
g5
sg6
g5
sg7
I00
sg8
g5
sg9
g5
sg11
g5
sg12
g5
sg13
g5
sg14
g5
sg15
g5
sg16
g5
sg17
I119292
sg18
g5
sg19
g5
sg20
g5
sg21
g5
sg22
g5
sg23
g5
sg24
I119292
sg25
g5
sS'total_compensation_abs_abs_abs_abs_abs_abs_abs_abs_abs_abs_abs_abs_abs_abs_abs_abs_abs_abs_abs_abs_abs_abs_abs_abs_abs_abs_abs_abs_abs_abs_abs_abs_abs_abs_abs_abs_abs_abs_abs_abs_abs_abs_abs_abs_abs_abs_abs_abs_abs_abs_abs_abs_abs_abs_abs_abs_abs_abs_abs_abs_abs_abs_abs_abs_abs_abs_abs_abs_abs_abs_abs_abs_abs_abs_abs_abs_abs_abs_abs_abs_abs_abs_abs_abs_abs_abs_abs_abs_abs_abs_abs_abs_abs_abs_abs_abs_abs_abs_abs_abs_abs_abs_abs_abs_abs_abs_abs_abs_abs_abs_abs_abs_abs_abs_abs_abs_abs_abs_abs_abs_abs_abs_abs_abs_abs_abs_abs_abs_abs_abs_abs_abs_abs_abs_abs_abs_abs_abs_abs_abs_abs'
p554
I238584
ssS'CAUSEY RICHARD A'
p555
(dp556
g3
I1892
sg4
g5
sg6
I30674
sg7
I01
sg8
I-235000
sg9
S'richard.causey@enron.com'
p557
sS'total_compensation_abs_abs_abs_abs_abs_abs_abs_abs_abs_abs_abs_abs_abs_abs_abs_abs_abs_abs_abs_abs_abs_abs_abs_abs_abs_abs_abs_abs_abs_abs_abs_abs_abs_abs_abs_abs_abs_abs_abs_abs_abs_abs_abs_abs_abs_abs_abs_abs_abs_abs_abs_abs_abs_abs_abs_abs_abs_abs_abs_abs_abs_abs_abs_abs_abs_abs_abs_abs_abs_abs_abs_abs_abs_abs_abs_abs_abs_abs_abs_abs_abs_abs_abs_abs_abs_abs_abs_abs_abs_abs_abs_abs_abs_abs_abs_abs_abs_abs_abs_abs_abs_abs_abs_abs_abs_abs_abs_abs_abs_abs_abs_abs_abs_abs_abs_abs_abs_abs_abs_abs_abs_abs_abs_abs_abs_abs_abs_abs_abs_abs_abs_abs_abs_abs_abs_abs_abs_abs_abs_abs_abs_abs'
p558
I9211642
sg12
g5
sg13
I1585
sg14
g5
sg15
I49
sg16
I307895
sg17
g5
sg18
I1000000
sg19
I2502063
sg20
I58
sg21
I12
sg11
I350000
sg22
I2502063
sg23
I415189
sg24
I1868758
sg25
g5
ssS'TAYLOR MITCHELL S'
p559
(dp560
g3
I533
sg4
I227449
sg6
g5
sg7
I00
sg8
g5
sg9
S'mitchell.taylor@enron.com'
p561
sg11
g5
sg12
g5
sg13
I300
sg14
g5
sg15
I29
sg16
g5
sg17
g5
sg18
I600000
sg19
I3745048
sg20
I0
sg21
I0
sg22
I563798
sg23
I265214
sg24
I1092663
sS'total_compensation_abs_abs_abs_abs_abs_abs_abs_abs_abs_abs_abs_abs_abs_abs_abs_abs_abs_abs_abs_abs_abs_abs_abs_abs_abs_abs_abs_abs_abs_abs_abs_abs_abs_abs_abs_abs_abs_abs_abs_abs_abs_abs_abs_abs_abs_abs_abs_abs_abs_abs_abs_abs_abs_abs_abs_abs_abs_abs_abs_abs_abs_abs_abs_abs_abs_abs_abs_abs_abs_abs_abs_abs_abs_abs_abs_abs_abs_abs_abs_abs_abs_abs_abs_abs_abs_abs_abs_abs_abs_abs_abs_abs_abs_abs_abs_abs_abs_abs_abs_abs_abs_abs_abs_abs_abs_abs_abs_abs_abs_abs_abs_abs_abs_abs_abs_abs_abs_abs_abs_abs_abs_abs_abs_abs_abs_abs_abs_abs_abs_abs_abs_abs_abs_abs_abs_abs_abs_abs_abs_abs_abs_abs_abs'
p562
I9675422
sg25
I3181250
ssS'DONAHUE JR JEFFREY M'
p563
(dp564
g3
I865
sg4
g5
sg6
I96268
sg7
I00
sg8
I-300000
sg9
S'jeff.donahue@enron.com'
p565
sg11
g5
sg12
g5
sg13
I772
sg14
g5
sg15
I22
sg16
I891
sg17
g5
sg18
I800000
sg19
I1080988
sg20
I188
sg21
I11
sg22
I315068
sg23
I278601
sg24
I875760
sg25
I765920
sS'total_compensation_abs_abs_abs_abs_abs_abs_abs_abs_abs_abs_abs_abs_abs_abs_abs_abs_abs_abs_abs_abs_abs_abs_abs_abs_abs_abs_abs_abs_abs_abs_abs_abs_abs_abs_abs_abs_abs_abs_abs_abs_abs_abs_abs_abs_abs_abs_abs_abs_abs_abs_abs_abs_abs_abs_abs_abs_abs_abs_abs_abs_abs_abs_abs_abs_abs_abs_abs_abs_abs_abs_abs_abs_abs_abs_abs_abs_abs_abs_abs_abs_abs_abs_abs_abs_abs_abs_abs_abs_abs_abs_abs_abs_abs_abs_abs_abs_abs_abs_abs_abs_abs_abs_abs_abs_abs_abs_abs_abs_abs_abs_abs_abs_abs_abs_abs_abs_abs_abs_abs_abs_abs_abs_abs_abs_abs_abs_abs_abs_abs_abs_abs_abs_abs_abs_abs_abs_abs_abs_abs_abs_abs_abs_abs_abs'
p566
I4513496
ssS'GLISAN JR BEN F'
p567
(dp568
g3
I873
sg4
g5
sg6
I125978
sg7
I01
sg8
g5
sg9
S'ben.glisan@enron.com'
p569
sg11
I71023
sS'total_compensation_abs_abs_abs_abs_abs_abs_abs_abs_abs_abs_abs_abs_abs_abs_abs_abs_abs_abs_abs_abs_abs_abs_abs_abs_abs_abs_abs_abs_abs_abs_abs_abs_abs_abs_abs_abs_abs_abs_abs_abs_abs_abs_abs_abs_abs_abs_abs_abs_abs_abs_abs_abs_abs_abs_abs_abs_abs_abs_abs_abs_abs_abs_abs_abs_abs_abs_abs_abs_abs_abs_abs_abs_abs_abs_abs_abs_abs_abs_abs_abs_abs_abs_abs_abs_abs_abs_abs_abs_abs_abs_abs_abs_abs_abs_abs_abs_abs_abs_abs_abs_abs_abs_abs_abs_abs_abs_abs_abs_abs_abs_abs_abs_abs_abs_abs_abs_abs_abs_abs_abs_abs_abs_abs_abs_abs_abs_abs_abs_abs_abs_abs_abs_abs_abs_abs_abs_abs_abs_abs_abs_abs_abs_abs_abs_abs'
p570
I4101660
sg12
g5
sg13
I874
sg14
g5
sg15
I16
sg16
I200308
sg17
g5
sg18
I600000
sg19
I778546
sg20
I52
sg21
I6
sg22
I393818
sg23
I274975
sg24
I1272284
sg25
I384728
ss.